SF:/mnt/040b9fb6-50c4-4490-87c6-b7dd911435c9/Projects/rust/manga-vault/apps/http/gql/src/image_proxy/mod.rs
FN:22,_RNCNCNvNtCs1uU1prdvDfE_7gql_api11image_proxy11proxy_image00B7_
FN:54,_RNCNCNvNtCs1uU1prdvDfE_7gql_api11image_proxy11proxy_image0s0_0B7_
FN:55,_RNCNCNvNtCs1uU1prdvDfE_7gql_api11image_proxy11proxy_image0s1_0B7_
FN:23,_RNCNCNvNtCs1uU1prdvDfE_7gql_api11image_proxy11proxy_image0s_0B7_
FN:12,_RNCNvNtCs1uU1prdvDfE_7gql_api11image_proxy11proxy_image0B5_
FN:12,_RNvNtCs1uU1prdvDfE_7gql_api11image_proxy11proxy_image
FN:123,_RNvNtCs1uU1prdvDfE_7gql_api11image_proxy19is_valid_image_type
FNDA:0,_RNCNCNvNtCs1uU1prdvDfE_7gql_api11image_proxy11proxy_image00B7_
FNDA:0,_RNCNCNvNtCs1uU1prdvDfE_7gql_api11image_proxy11proxy_image0s0_0B7_
FNDA:0,_RNCNCNvNtCs1uU1prdvDfE_7gql_api11image_proxy11proxy_image0s1_0B7_
FNDA:0,_RNCNCNvNtCs1uU1prdvDfE_7gql_api11image_proxy11proxy_image0s_0B7_
FNDA:0,_RNCNvNtCs1uU1prdvDfE_7gql_api11image_proxy11proxy_image0B5_
FNDA:0,_RNvNtCs1uU1prdvDfE_7gql_api11image_proxy11proxy_image
FNDA:0,_RNvNtCs1uU1prdvDfE_7gql_api11image_proxy19is_valid_image_type
FNF:7
FNH:0
DA:12,0
DA:13,0
DA:14,0
DA:15,0
DA:18,0
DA:19,0
DA:20,0
DA:21,0
DA:22,0
DA:23,0
DA:26,0
DA:28,0
DA:30,0
DA:31,0
DA:32,0
DA:34,0
DA:35,0
DA:36,0
DA:38,0
DA:39,0
DA:40,0
DA:41,0
DA:42,0
DA:46,0
DA:47,0
DA:48,0
DA:49,0
DA:51,0
DA:52,0
DA:53,0
DA:54,0
DA:55,0
DA:56,0
DA:58,0
DA:59,0
DA:61,0
DA:62,0
DA:63,0
DA:64,0
DA:65,0
DA:66,0
DA:69,0
DA:70,0
DA:71,0
DA:72,0
DA:77,0
DA:78,0
DA:79,0
DA:80,0
DA:81,0
DA:82,0
DA:83,0
DA:84,0
DA:85,0
DA:86,0
DA:87,0
DA:88,0
DA:89,0
DA:91,0
DA:93,0
DA:94,0
DA:95,0
DA:99,0
DA:100,0
DA:101,0
DA:102,0
DA:104,0
DA:105,0
DA:106,0
DA:107,0
DA:109,0
DA:110,0
DA:111,0
DA:112,0
DA:114,0
DA:115,0
DA:116,0
DA:117,0
DA:118,0
DA:121,0
DA:123,0
DA:124,0
DA:125,0
DA:126,0
DA:127,0
DA:128,0
DA:129,0
DA:130,0
DA:132,0
BRF:0
BRH:0
LF:94
LH:0
end_of_record
SF:/mnt/040b9fb6-50c4-4490-87c6-b7dd911435c9/Projects/rust/manga-vault/apps/http/gql/src/lib.rs
FN:95,_RNCNCNvCs1uU1prdvDfE_7gql_api15graphql_handler00B5_
FN:137,_RNCNCNvCs1uU1prdvDfE_7gql_api3run00B5_
FN:156,_RNCNCNvCs1uU1prdvDfE_7gql_api3run0s0_0B5_
FN:149,_RNCNCNvCs1uU1prdvDfE_7gql_api3run0s_0B5_
FN:91,_RNCNvCs1uU1prdvDfE_7gql_api15graphql_handler0B3_
FN:127,_RNCNvCs1uU1prdvDfE_7gql_api18graphql_playground0B3_
FN:133,_RNCNvCs1uU1prdvDfE_7gql_api3run0B3_
FN:33,_RNvCs1uU1prdvDfE_7gql_api15generate_secret
FN:85,_RNvCs1uU1prdvDfE_7gql_api15graphql_handler
FN:127,_RNvCs1uU1prdvDfE_7gql_api18graphql_playground
FN:41,_RNvCs1uU1prdvDfE_7gql_api22current_exe_parent_dir
FN:133,_RNvCs1uU1prdvDfE_7gql_api3run
FN:71,_RNvXCs1uU1prdvDfE_7gql_apiNtB2_6ConfigNtNtCs9bgXZFP4km6_4core7default7Default7default
FNDA:0,_RNCNCNvCs1uU1prdvDfE_7gql_api15graphql_handler00B5_
FNDA:0,_RNCNCNvCs1uU1prdvDfE_7gql_api3run00B5_
FNDA:0,_RNCNCNvCs1uU1prdvDfE_7gql_api3run0s0_0B5_
FNDA:0,_RNCNCNvCs1uU1prdvDfE_7gql_api3run0s_0B5_
FNDA:0,_RNCNvCs1uU1prdvDfE_7gql_api15graphql_handler0B3_
FNDA:0,_RNCNvCs1uU1prdvDfE_7gql_api18graphql_playground0B3_
FNDA:0,_RNCNvCs1uU1prdvDfE_7gql_api3run0B3_
FNDA:0,_RNvCs1uU1prdvDfE_7gql_api15generate_secret
FNDA:0,_RNvCs1uU1prdvDfE_7gql_api15graphql_handler
FNDA:0,_RNvCs1uU1prdvDfE_7gql_api18graphql_playground
FNDA:0,_RNvCs1uU1prdvDfE_7gql_api22current_exe_parent_dir
FNDA:0,_RNvCs1uU1prdvDfE_7gql_api3run
FNDA:0,_RNvXCs1uU1prdvDfE_7gql_apiNtB2_6ConfigNtNtCs9bgXZFP4km6_4core7default7Default7default
FNF:13
FNH:0
DA:33,0
DA:34,0
DA:35,0
DA:36,0
DA:37,0
DA:38,0
DA:39,0
DA:41,0
DA:42,0
DA:43,0
DA:44,0
DA:45,0
DA:46,0
DA:47,0
DA:71,0
DA:72,0
DA:73,0
DA:74,0
DA:75,0
DA:76,0
DA:77,0
DA:78,0
DA:79,0
DA:80,0
DA:81,0
DA:82,0
DA:85,0
DA:86,0
DA:87,0
DA:88,0
DA:89,0
DA:90,0
DA:91,0
DA:92,0
DA:93,0
DA:95,0
DA:96,0
DA:98,0
DA:99,0
DA:100,0
DA:101,0
DA:102,0
DA:103,0
DA:104,0
DA:105,0
DA:106,0
DA:108,0
DA:109,0
DA:110,0
DA:111,0
DA:112,0
DA:113,0
DA:114,0
DA:115,0
DA:116,0
DA:117,0
DA:121,0
DA:122,0
DA:124,0
DA:125,0
DA:127,0
DA:128,0
DA:129,0
DA:130,0
DA:131,0
DA:133,0
DA:134,0
DA:136,0
DA:137,0
DA:139,0
DA:140,0
DA:141,0
DA:142,0
DA:143,0
DA:145,0
DA:149,0
DA:150,0
DA:151,0
DA:153,0
DA:154,0
DA:155,0
DA:156,0
DA:157,0
DA:159,0
DA:160,0
DA:162,0
DA:163,0
DA:165,0
DA:166,0
DA:167,0
DA:168,0
DA:169,0
DA:171,0
DA:172,0
DA:173,0
DA:174,0
DA:175,0
DA:176,0
DA:177,0
DA:178,0
DA:179,0
DA:180,0
DA:182,0
DA:183,0
DA:184,0
DA:185,0
DA:186,0
DA:188,0
DA:189,0
DA:190,0
DA:191,0
DA:194,0
DA:195,0
DA:196,0
DA:199,0
DA:200,0
DA:201,0
DA:202,0
DA:205,0
DA:206,0
DA:207,0
DA:208,0
DA:212,0
DA:213,0
BRF:0
BRH:0
LF:131
LH:0
end_of_record
SF:/mnt/040b9fb6-50c4-4490-87c6-b7dd911435c9/Projects/rust/manga-vault/apps/http/gql/src/main.rs
FN:8,_RNCNvCs6ie6gkqXSwv_15manga_vault_gql4main0B3_
FN:8,_RNvCs6ie6gkqXSwv_15manga_vault_gql4main
FNDA:0,_RNCNvCs6ie6gkqXSwv_15manga_vault_gql4main0B3_
FNDA:0,_RNvCs6ie6gkqXSwv_15manga_vault_gql4main
FNF:2
FNH:0
DA:8,0
DA:9,0
DA:11,0
DA:13,0
DA:14,0
DA:15,0
DA:16,0
DA:17,0
DA:18,0
DA:19,0
DA:20,0
DA:21,0
DA:23,0
DA:25,0
DA:26,0
BRF:0
BRH:0
LF:17
LH:0
end_of_record
SF:/mnt/040b9fb6-50c4-4490-87c6-b7dd911435c9/Projects/rust/manga-vault/apps/http/gql/src/mutations/auth.rs
FN:105,_RNCNCNvMs4_NtNtCs1uU1prdvDfE_7gql_api9mutations4authNtB9_12AuthMutation5login00Bd_
FN:165,_RNCNCNvNtNtCs1uU1prdvDfE_7gql_api9mutations4auth15verify_password00B9_
FN:182,_RNCNCNvNtNtCs1uU1prdvDfE_7gql_api9mutations4auth15verify_password0s_0B9_
FN:97,_RNCNvMs4_NtNtCs1uU1prdvDfE_7gql_api9mutations4authNtB7_12AuthMutation5login0Bb_
FN:140,_RNCNvMs4_NtNtCs1uU1prdvDfE_7gql_api9mutations4authNtB7_12AuthMutation6logout0Bb_
FN:40,_RNCNvMs4_NtNtCs1uU1prdvDfE_7gql_api9mutations4authNtB7_12AuthMutation8register0Bb_
FN:158,_RNCNvNtNtCs1uU1prdvDfE_7gql_api9mutations4auth12generate_jwt0B7_
FN:161,_RNCNvNtNtCs1uU1prdvDfE_7gql_api9mutations4auth15verify_password0B7_
FN:97,_RNvMs4_NtNtCs1uU1prdvDfE_7gql_api9mutations4authNtB5_12AuthMutation5login
FN:140,_RNvMs4_NtNtCs1uU1prdvDfE_7gql_api9mutations4authNtB5_12AuthMutation6logout
FN:40,_RNvMs4_NtNtCs1uU1prdvDfE_7gql_api9mutations4authNtB5_12AuthMutation8register
FN:146,_RNvNtNtCs1uU1prdvDfE_7gql_api9mutations4auth12generate_jwt
FN:161,_RNvNtNtCs1uU1prdvDfE_7gql_api9mutations4auth15verify_password
FN:29,_RNvXs1_NtNtCs1uU1prdvDfE_7gql_api9mutations4authNtB5_13RegisterInputNtNtCseMgwbgZFWos_13async_graphql4base9InputType5parse
FN:23,_RNvXs_NtNtCs1uU1prdvDfE_7gql_api9mutations4authNtB4_10LoginInputNtNtCseMgwbgZFWos_13async_graphql4base9InputType5parse
FNDA:0,_RNCNCNvMs4_NtNtCs1uU1prdvDfE_7gql_api9mutations4authNtB9_12AuthMutation5login00Bd_
FNDA:0,_RNCNCNvNtNtCs1uU1prdvDfE_7gql_api9mutations4auth15verify_password00B9_
FNDA:0,_RNCNCNvNtNtCs1uU1prdvDfE_7gql_api9mutations4auth15verify_password0s_0B9_
FNDA:0,_RNCNvMs4_NtNtCs1uU1prdvDfE_7gql_api9mutations4authNtB7_12AuthMutation5login0Bb_
FNDA:0,_RNCNvMs4_NtNtCs1uU1prdvDfE_7gql_api9mutations4authNtB7_12AuthMutation6logout0Bb_
FNDA:0,_RNCNvMs4_NtNtCs1uU1prdvDfE_7gql_api9mutations4authNtB7_12AuthMutation8register0Bb_
FNDA:0,_RNCNvNtNtCs1uU1prdvDfE_7gql_api9mutations4auth12generate_jwt0B7_
FNDA:0,_RNCNvNtNtCs1uU1prdvDfE_7gql_api9mutations4auth15verify_password0B7_
FNDA:0,_RNvMs4_NtNtCs1uU1prdvDfE_7gql_api9mutations4authNtB5_12AuthMutation5login
FNDA:0,_RNvMs4_NtNtCs1uU1prdvDfE_7gql_api9mutations4authNtB5_12AuthMutation6logout
FNDA:0,_RNvMs4_NtNtCs1uU1prdvDfE_7gql_api9mutations4authNtB5_12AuthMutation8register
FNDA:0,_RNvNtNtCs1uU1prdvDfE_7gql_api9mutations4auth12generate_jwt
FNDA:0,_RNvNtNtCs1uU1prdvDfE_7gql_api9mutations4auth15verify_password
FNDA:0,_RNvXs1_NtNtCs1uU1prdvDfE_7gql_api9mutations4authNtB5_13RegisterInputNtNtCseMgwbgZFWos_13async_graphql4base9InputType5parse
FNDA:0,_RNvXs_NtNtCs1uU1prdvDfE_7gql_api9mutations4authNtB4_10LoginInputNtNtCseMgwbgZFWos_13async_graphql4base9InputType5parse
FNF:15
FNH:0
DA:23,0
DA:29,0
DA:40,0
DA:41,0
DA:42,0
DA:44,0
DA:45,0
DA:46,0
DA:47,0
DA:49,0
DA:50,0
DA:51,0
DA:53,0
DA:54,0
DA:55,0
DA:56,0
DA:58,0
DA:59,0
DA:60,0
DA:61,0
DA:62,0
DA:63,0
DA:65,0
DA:67,0
DA:85,0
DA:87,0
DA:88,0
DA:90,0
DA:93,0
DA:95,0
DA:97,0
DA:98,0
DA:99,0
DA:101,0
DA:102,0
DA:103,0
DA:104,0
DA:105,0
DA:107,0
DA:108,0
DA:109,0
DA:111,0
DA:128,0
DA:130,0
DA:131,0
DA:133,0
DA:136,0
DA:138,0
DA:140,0
DA:141,0
DA:142,0
DA:143,0
DA:146,0
DA:147,0
DA:148,0
DA:149,0
DA:150,0
DA:152,0
DA:153,0
DA:154,0
DA:155,0
DA:157,0
DA:158,0
DA:159,0
DA:161,0
DA:162,0
DA:163,0
DA:164,0
DA:165,0
DA:167,0
DA:168,0
DA:169,0
DA:170,0
DA:171,0
DA:173,0
DA:174,0
DA:176,0
DA:181,0
DA:182,0
DA:184,0
DA:185,0
DA:186,0
DA:188,0
DA:189,0
DA:190,0
DA:191,0
DA:193,0
DA:194,0
DA:195,0
DA:196,0
DA:197,0
DA:198,0
DA:200,0
DA:203,0
BRF:0
BRH:0
LF:102
LH:0
end_of_record
SF:/mnt/040b9fb6-50c4-4490-87c6-b7dd911435c9/Projects/rust/manga-vault/apps/http/gql/src/mutations/category.rs
FN:71,_RNCNCNvMs4_NtNtCs1uU1prdvDfE_7gql_api9mutations8categoryNtB9_16CategoryMutation15delete_category00Bd_
FN:48,_RNCNCNvMs4_NtNtCs1uU1prdvDfE_7gql_api9mutations8categoryNtB9_16CategoryMutation15update_category00Bd_
FN:26,_RNCNvMs4_NtNtCs1uU1prdvDfE_7gql_api9mutations8categoryNtB7_16CategoryMutation15create_category0Bb_
FN:64,_RNCNvMs4_NtNtCs1uU1prdvDfE_7gql_api9mutations8categoryNtB7_16CategoryMutation15delete_category0Bb_
FN:41,_RNCNvMs4_NtNtCs1uU1prdvDfE_7gql_api9mutations8categoryNtB7_16CategoryMutation15update_category0Bb_
FN:26,_RNvMs4_NtNtCs1uU1prdvDfE_7gql_api9mutations8categoryNtB5_16CategoryMutation15create_category
FN:64,_RNvMs4_NtNtCs1uU1prdvDfE_7gql_api9mutations8categoryNtB5_16CategoryMutation15delete_category
FN:41,_RNvMs4_NtNtCs1uU1prdvDfE_7gql_api9mutations8categoryNtB5_16CategoryMutation15update_category
FN:11,_RNvXNtNtCs1uU1prdvDfE_7gql_api9mutations8categoryNtB2_19CreateCategoryInputNtNtCseMgwbgZFWos_13async_graphql4base9InputType5parse
FN:16,_RNvXs0_NtNtCs1uU1prdvDfE_7gql_api9mutations8categoryNtB5_19UpdateCategoryInputNtNtCseMgwbgZFWos_13async_graphql4base9InputType5parse
FNDA:0,_RNCNCNvMs4_NtNtCs1uU1prdvDfE_7gql_api9mutations8categoryNtB9_16CategoryMutation15delete_category00Bd_
FNDA:0,_RNCNCNvMs4_NtNtCs1uU1prdvDfE_7gql_api9mutations8categoryNtB9_16CategoryMutation15update_category00Bd_
FNDA:0,_RNCNvMs4_NtNtCs1uU1prdvDfE_7gql_api9mutations8categoryNtB7_16CategoryMutation15create_category0Bb_
FNDA:0,_RNCNvMs4_NtNtCs1uU1prdvDfE_7gql_api9mutations8categoryNtB7_16CategoryMutation15delete_category0Bb_
FNDA:0,_RNCNvMs4_NtNtCs1uU1prdvDfE_7gql_api9mutations8categoryNtB7_16CategoryMutation15update_category0Bb_
FNDA:0,_RNvMs4_NtNtCs1uU1prdvDfE_7gql_api9mutations8categoryNtB5_16CategoryMutation15create_category
FNDA:0,_RNvMs4_NtNtCs1uU1prdvDfE_7gql_api9mutations8categoryNtB5_16CategoryMutation15delete_category
FNDA:0,_RNvMs4_NtNtCs1uU1prdvDfE_7gql_api9mutations8categoryNtB5_16CategoryMutation15update_category
FNDA:0,_RNvXNtNtCs1uU1prdvDfE_7gql_api9mutations8categoryNtB2_19CreateCategoryInputNtNtCseMgwbgZFWos_13async_graphql4base9InputType5parse
FNDA:0,_RNvXs0_NtNtCs1uU1prdvDfE_7gql_api9mutations8categoryNtB5_19UpdateCategoryInputNtNtCseMgwbgZFWos_13async_graphql4base9InputType5parse
FNF:10
FNH:0
DA:11,0
DA:16,0
DA:26,0
DA:27,0
DA:28,0
DA:30,0
DA:31,0
DA:32,0
DA:33,0
DA:34,0
DA:35,0
DA:37,0
DA:38,0
DA:39,0
DA:41,0
DA:42,0
DA:43,0
DA:45,0
DA:46,0
DA:47,0
DA:48,0
DA:50,0
DA:51,0
DA:52,0
DA:54,0
DA:55,0
DA:56,0
DA:57,0
DA:58,0
DA:60,0
DA:61,0
DA:62,0
DA:64,0
DA:65,0
DA:66,0
DA:68,0
DA:69,0
DA:70,0
DA:71,0
DA:73,0
DA:74,0
DA:75,0
DA:77,0
DA:78,0
DA:79,0
DA:80,0
DA:82,0
DA:83,0
DA:84,0
DA:86,0
DA:87,0
DA:88,0
BRF:0
BRH:0
LF:57
LH:0
end_of_record
SF:/mnt/040b9fb6-50c4-4490-87c6-b7dd911435c9/Projects/rust/manga-vault/apps/http/gql/src/mutations/chapter.rs
FN:49,_RNCNCNvMs_NtNtCs1uU1prdvDfE_7gql_api9mutations7chapterNtB8_15ChapterMutation14unread_chapter00Bc_
FN:79,_RNCNCNvMs_NtNtCs1uU1prdvDfE_7gql_api9mutations7chapterNtB8_15ChapterMutation17read_all_chapters00Bc_
FN:16,_RNCNvMs_NtNtCs1uU1prdvDfE_7gql_api9mutations7chapterNtB6_15ChapterMutation12read_chapter0Ba_
FN:40,_RNCNvMs_NtNtCs1uU1prdvDfE_7gql_api9mutations7chapterNtB6_15ChapterMutation14unread_chapter0Ba_
FN:62,_RNCNvMs_NtNtCs1uU1prdvDfE_7gql_api9mutations7chapterNtB6_15ChapterMutation17read_all_chapters0Ba_
FN:101,_RNCNvMs_NtNtCs1uU1prdvDfE_7gql_api9mutations7chapterNtB6_15ChapterMutation19unread_all_chapters0Ba_
FN:16,_RNvMs_NtNtCs1uU1prdvDfE_7gql_api9mutations7chapterNtB4_15ChapterMutation12read_chapter
FN:40,_RNvMs_NtNtCs1uU1prdvDfE_7gql_api9mutations7chapterNtB4_15ChapterMutation14unread_chapter
FN:62,_RNvMs_NtNtCs1uU1prdvDfE_7gql_api9mutations7chapterNtB4_15ChapterMutation17read_all_chapters
FN:101,_RNvMs_NtNtCs1uU1prdvDfE_7gql_api9mutations7chapterNtB4_15ChapterMutation19unread_all_chapters
FNDA:0,_RNCNCNvMs_NtNtCs1uU1prdvDfE_7gql_api9mutations7chapterNtB8_15ChapterMutation14unread_chapter00Bc_
FNDA:0,_RNCNCNvMs_NtNtCs1uU1prdvDfE_7gql_api9mutations7chapterNtB8_15ChapterMutation17read_all_chapters00Bc_
FNDA:0,_RNCNvMs_NtNtCs1uU1prdvDfE_7gql_api9mutations7chapterNtB6_15ChapterMutation12read_chapter0Ba_
FNDA:0,_RNCNvMs_NtNtCs1uU1prdvDfE_7gql_api9mutations7chapterNtB6_15ChapterMutation14unread_chapter0Ba_
FNDA:0,_RNCNvMs_NtNtCs1uU1prdvDfE_7gql_api9mutations7chapterNtB6_15ChapterMutation17read_all_chapters0Ba_
FNDA:0,_RNCNvMs_NtNtCs1uU1prdvDfE_7gql_api9mutations7chapterNtB6_15ChapterMutation19unread_all_chapters0Ba_
FNDA:0,_RNvMs_NtNtCs1uU1prdvDfE_7gql_api9mutations7chapterNtB4_15ChapterMutation12read_chapter
FNDA:0,_RNvMs_NtNtCs1uU1prdvDfE_7gql_api9mutations7chapterNtB4_15ChapterMutation14unread_chapter
FNDA:0,_RNvMs_NtNtCs1uU1prdvDfE_7gql_api9mutations7chapterNtB4_15ChapterMutation17read_all_chapters
FNDA:0,_RNvMs_NtNtCs1uU1prdvDfE_7gql_api9mutations7chapterNtB4_15ChapterMutation19unread_all_chapters
FNF:10
FNH:0
DA:16,0
DA:17,0
DA:18,0
DA:20,0
DA:22,0
DA:23,0
DA:24,0
DA:25,0
DA:28,0
DA:29,0
DA:30,0
DA:31,0
DA:32,0
DA:33,0
DA:34,0
DA:36,0
DA:37,0
DA:38,0
DA:40,0
DA:41,0
DA:42,0
DA:44,0
DA:45,0
DA:46,0
DA:47,0
DA:48,0
DA:49,0
DA:51,0
DA:52,0
DA:53,0
DA:55,0
DA:56,0
DA:57,0
DA:59,0
DA:60,0
DA:62,0
DA:63,0
DA:64,0
DA:66,0
DA:67,0
DA:68,0
DA:69,0
DA:71,0
DA:72,0
DA:73,0
DA:74,0
DA:75,0
DA:77,0
DA:78,0
DA:79,0
DA:80,0
DA:81,0
DA:83,0
DA:84,0
DA:85,0
DA:86,0
DA:87,0
DA:88,0
DA:89,0
DA:91,0
DA:94,0
DA:95,0
DA:96,0
DA:98,0
DA:99,0
DA:101,0
DA:102,0
DA:103,0
DA:105,0
DA:106,0
DA:107,0
DA:108,0
DA:109,0
DA:111,0
DA:112,0
BRF:0
BRH:0
LF:81
LH:0
end_of_record
SF:/mnt/040b9fb6-50c4-4490-87c6-b7dd911435c9/Projects/rust/manga-vault/apps/http/gql/src/mutations/favorite_manga.rs
FN:96,_RNCNCNvMs4_NtNtCs1uU1prdvDfE_7gql_api9mutations14favorite_mangaNtB9_21FavoriteMangaMutation21delete_favorite_manga00Bd_
FN:69,_RNCNCNvMs4_NtNtCs1uU1prdvDfE_7gql_api9mutations14favorite_mangaNtB9_21FavoriteMangaMutation21update_favorite_manga00Bd_
FN:27,_RNCNvMs4_NtNtCs1uU1prdvDfE_7gql_api9mutations14favorite_mangaNtB7_21FavoriteMangaMutation21create_favorite_manga0Bb_
FN:89,_RNCNvMs4_NtNtCs1uU1prdvDfE_7gql_api9mutations14favorite_mangaNtB7_21FavoriteMangaMutation21delete_favorite_manga0Bb_
FN:62,_RNCNvMs4_NtNtCs1uU1prdvDfE_7gql_api9mutations14favorite_mangaNtB7_21FavoriteMangaMutation21update_favorite_manga0Bb_
FN:27,_RNvMs4_NtNtCs1uU1prdvDfE_7gql_api9mutations14favorite_mangaNtB5_21FavoriteMangaMutation21create_favorite_manga
FN:89,_RNvMs4_NtNtCs1uU1prdvDfE_7gql_api9mutations14favorite_mangaNtB5_21FavoriteMangaMutation21delete_favorite_manga
FN:57,_RNvMs4_NtNtCs1uU1prdvDfE_7gql_api9mutations14favorite_mangaNtB5_21FavoriteMangaMutation21update_favorite_manga
FN:11,_RNvXNtNtCs1uU1prdvDfE_7gql_api9mutations14favorite_mangaNtB2_24CreateFavoriteMangaInputNtNtCseMgwbgZFWos_13async_graphql4base9InputType5parse
FN:17,_RNvXs0_NtNtCs1uU1prdvDfE_7gql_api9mutations14favorite_mangaNtB5_24UpdateFavoriteMangaInputNtNtCseMgwbgZFWos_13async_graphql4base9InputType5parse
FNDA:0,_RNCNCNvMs4_NtNtCs1uU1prdvDfE_7gql_api9mutations14favorite_mangaNtB9_21FavoriteMangaMutation21delete_favorite_manga00Bd_
FNDA:0,_RNCNCNvMs4_NtNtCs1uU1prdvDfE_7gql_api9mutations14favorite_mangaNtB9_21FavoriteMangaMutation21update_favorite_manga00Bd_
FNDA:0,_RNCNvMs4_NtNtCs1uU1prdvDfE_7gql_api9mutations14favorite_mangaNtB7_21FavoriteMangaMutation21create_favorite_manga0Bb_
FNDA:0,_RNCNvMs4_NtNtCs1uU1prdvDfE_7gql_api9mutations14favorite_mangaNtB7_21FavoriteMangaMutation21delete_favorite_manga0Bb_
FNDA:0,_RNCNvMs4_NtNtCs1uU1prdvDfE_7gql_api9mutations14favorite_mangaNtB7_21FavoriteMangaMutation21update_favorite_manga0Bb_
FNDA:0,_RNvMs4_NtNtCs1uU1prdvDfE_7gql_api9mutations14favorite_mangaNtB5_21FavoriteMangaMutation21create_favorite_manga
FNDA:0,_RNvMs4_NtNtCs1uU1prdvDfE_7gql_api9mutations14favorite_mangaNtB5_21FavoriteMangaMutation21delete_favorite_manga
FNDA:0,_RNvMs4_NtNtCs1uU1prdvDfE_7gql_api9mutations14favorite_mangaNtB5_21FavoriteMangaMutation21update_favorite_manga
FNDA:0,_RNvXNtNtCs1uU1prdvDfE_7gql_api9mutations14favorite_mangaNtB2_24CreateFavoriteMangaInputNtNtCseMgwbgZFWos_13async_graphql4base9InputType5parse
FNDA:0,_RNvXs0_NtNtCs1uU1prdvDfE_7gql_api9mutations14favorite_mangaNtB5_24UpdateFavoriteMangaInputNtNtCseMgwbgZFWos_13async_graphql4base9InputType5parse
FNF:10
FNH:0
DA:11,0
DA:17,0
DA:27,0
DA:28,0
DA:29,0
DA:31,0
DA:32,0
DA:33,0
DA:34,0
DA:35,0
DA:36,0
DA:38,0
DA:39,0
DA:40,0
DA:41,0
DA:42,0
DA:43,0
DA:45,0
DA:46,0
DA:47,0
DA:48,0
DA:49,0
DA:50,0
DA:51,0
DA:53,0
DA:54,0
DA:55,0
DA:57,0
DA:58,0
DA:59,0
DA:60,0
DA:61,0
DA:62,0
DA:63,0
DA:64,0
DA:66,0
DA:67,0
DA:68,0
DA:69,0
DA:71,0
DA:72,0
DA:73,0
DA:75,0
DA:76,0
DA:77,0
DA:78,0
DA:79,0
DA:80,0
DA:81,0
DA:82,0
DA:83,0
DA:85,0
DA:86,0
DA:87,0
DA:89,0
DA:90,0
DA:91,0
DA:93,0
DA:94,0
DA:95,0
DA:96,0
DA:98,0
DA:99,0
DA:100,0
DA:102,0
DA:103,0
DA:104,0
DA:106,0
DA:107,0
BRF:0
BRH:0
LF:74
LH:0
end_of_record
SF:/mnt/040b9fb6-50c4-4490-87c6-b7dd911435c9/Projects/rust/manga-vault/apps/http/gql/src/mutations/file.rs
FN:62,_RNCNCNCNvMs_NtNtCs1uU1prdvDfE_7gql_api9mutations4fileNtBa_12FileMutation11upload_file0s0_00Be_
FN:73,_RNCNCNCNvMs_NtNtCs1uU1prdvDfE_7gql_api9mutations4fileNtBa_12FileMutation11upload_file0s0_0s_0Be_
FN:34,_RNCNCNvMs_NtNtCs1uU1prdvDfE_7gql_api9mutations4fileNtB8_12FileMutation11upload_file00Bc_
FN:60,_RNCNCNvMs_NtNtCs1uU1prdvDfE_7gql_api9mutations4fileNtB8_12FileMutation11upload_file0s0_0Bc_
FN:79,_RNCNCNvMs_NtNtCs1uU1prdvDfE_7gql_api9mutations4fileNtB8_12FileMutation11upload_file0s1_0Bc_
FN:84,_RNCNCNvMs_NtNtCs1uU1prdvDfE_7gql_api9mutations4fileNtB8_12FileMutation11upload_file0s2_0Bc_
FN:89,_RNCNCNvMs_NtNtCs1uU1prdvDfE_7gql_api9mutations4fileNtB8_12FileMutation11upload_file0s3_0Bc_
FN:58,_RNCNCNvMs_NtNtCs1uU1prdvDfE_7gql_api9mutations4fileNtB8_12FileMutation11upload_file0s_0Bc_
FN:21,_RNCNvMs_NtNtCs1uU1prdvDfE_7gql_api9mutations4fileNtB6_12FileMutation11upload_file0Ba_
FN:21,_RNvMs_NtNtCs1uU1prdvDfE_7gql_api9mutations4fileNtB4_12FileMutation11upload_file
FNDA:0,_RNCNCNCNvMs_NtNtCs1uU1prdvDfE_7gql_api9mutations4fileNtBa_12FileMutation11upload_file0s0_00Be_
FNDA:0,_RNCNCNCNvMs_NtNtCs1uU1prdvDfE_7gql_api9mutations4fileNtBa_12FileMutation11upload_file0s0_0s_0Be_
FNDA:0,_RNCNCNvMs_NtNtCs1uU1prdvDfE_7gql_api9mutations4fileNtB8_12FileMutation11upload_file00Bc_
FNDA:0,_RNCNCNvMs_NtNtCs1uU1prdvDfE_7gql_api9mutations4fileNtB8_12FileMutation11upload_file0s0_0Bc_
FNDA:0,_RNCNCNvMs_NtNtCs1uU1prdvDfE_7gql_api9mutations4fileNtB8_12FileMutation11upload_file0s1_0Bc_
FNDA:0,_RNCNCNvMs_NtNtCs1uU1prdvDfE_7gql_api9mutations4fileNtB8_12FileMutation11upload_file0s2_0Bc_
FNDA:0,_RNCNCNvMs_NtNtCs1uU1prdvDfE_7gql_api9mutations4fileNtB8_12FileMutation11upload_file0s3_0Bc_
FNDA:0,_RNCNCNvMs_NtNtCs1uU1prdvDfE_7gql_api9mutations4fileNtB8_12FileMutation11upload_file0s_0Bc_
FNDA:0,_RNCNvMs_NtNtCs1uU1prdvDfE_7gql_api9mutations4fileNtB6_12FileMutation11upload_file0Ba_
FNDA:0,_RNvMs_NtNtCs1uU1prdvDfE_7gql_api9mutations4fileNtB4_12FileMutation11upload_file
FNF:10
FNH:0
DA:21,0
DA:22,0
DA:23,0
DA:24,0
DA:25,0
DA:27,0
DA:28,0
DA:29,0
DA:31,0
DA:32,0
DA:33,0
DA:34,0
DA:36,0
DA:37,0
DA:38,0
DA:40,0
DA:41,0
DA:42,0
DA:43,0
DA:44,0
DA:45,0
DA:47,0
DA:49,0
DA:50,0
DA:51,0
DA:52,0
DA:54,0
DA:55,0
DA:56,0
DA:57,0
DA:58,0
DA:60,0
DA:61,0
DA:62,0
DA:66,0
DA:67,0
DA:69,0
DA:72,0
DA:73,0
DA:74,0
DA:76,0
DA:77,0
DA:78,0
DA:79,0
DA:81,0
DA:82,0
DA:83,0
DA:84,0
DA:85,0
DA:87,0
DA:88,0
DA:89,0
DA:91,0
DA:92,0
BRF:0
BRH:0
LF:63
LH:0
end_of_record
SF:/mnt/040b9fb6-50c4-4490-87c6-b7dd911435c9/Projects/rust/manga-vault/apps/http/gql/src/mutations/manga_pack.rs
FN:101,_RNCNCNvMs3_NtNtCs1uU1prdvDfE_7gql_api9mutations10manga_packNtB9_17MangaPackMutation17delete_manga_pack00Bd_
FN:66,_RNCNCNvMs3_NtNtCs1uU1prdvDfE_7gql_api9mutations10manga_packNtB9_17MangaPackMutation17update_manga_pack00Bd_
FN:27,_RNCNvMs3_NtNtCs1uU1prdvDfE_7gql_api9mutations10manga_packNtB7_17MangaPackMutation17create_manga_pack0Bb_
FN:94,_RNCNvMs3_NtNtCs1uU1prdvDfE_7gql_api9mutations10manga_packNtB7_17MangaPackMutation17delete_manga_pack0Bb_
FN:59,_RNCNvMs3_NtNtCs1uU1prdvDfE_7gql_api9mutations10manga_packNtB7_17MangaPackMutation17update_manga_pack0Bb_
FN:27,_RNvMs3_NtNtCs1uU1prdvDfE_7gql_api9mutations10manga_packNtB5_17MangaPackMutation17create_manga_pack
FN:94,_RNvMs3_NtNtCs1uU1prdvDfE_7gql_api9mutations10manga_packNtB5_17MangaPackMutation17delete_manga_pack
FN:59,_RNvMs3_NtNtCs1uU1prdvDfE_7gql_api9mutations10manga_packNtB5_17MangaPackMutation17update_manga_pack
FN:11,_RNvXNtNtCs1uU1prdvDfE_7gql_api9mutations10manga_packNtB2_20CreateMangaPackInputNtNtCseMgwbgZFWos_13async_graphql4base9InputType5parse
FN:17,_RNvXs0_NtNtCs1uU1prdvDfE_7gql_api9mutations10manga_packNtB5_20UpdateMangaPackInputNtNtCseMgwbgZFWos_13async_graphql4base9InputType5parse
FNDA:0,_RNCNCNvMs3_NtNtCs1uU1prdvDfE_7gql_api9mutations10manga_packNtB9_17MangaPackMutation17delete_manga_pack00Bd_
FNDA:0,_RNCNCNvMs3_NtNtCs1uU1prdvDfE_7gql_api9mutations10manga_packNtB9_17MangaPackMutation17update_manga_pack00Bd_
FNDA:0,_RNCNvMs3_NtNtCs1uU1prdvDfE_7gql_api9mutations10manga_packNtB7_17MangaPackMutation17create_manga_pack0Bb_
FNDA:0,_RNCNvMs3_NtNtCs1uU1prdvDfE_7gql_api9mutations10manga_packNtB7_17MangaPackMutation17delete_manga_pack0Bb_
FNDA:0,_RNCNvMs3_NtNtCs1uU1prdvDfE_7gql_api9mutations10manga_packNtB7_17MangaPackMutation17update_manga_pack0Bb_
FNDA:0,_RNvMs3_NtNtCs1uU1prdvDfE_7gql_api9mutations10manga_packNtB5_17MangaPackMutation17create_manga_pack
FNDA:0,_RNvMs3_NtNtCs1uU1prdvDfE_7gql_api9mutations10manga_packNtB5_17MangaPackMutation17delete_manga_pack
FNDA:0,_RNvMs3_NtNtCs1uU1prdvDfE_7gql_api9mutations10manga_packNtB5_17MangaPackMutation17update_manga_pack
FNDA:0,_RNvXNtNtCs1uU1prdvDfE_7gql_api9mutations10manga_packNtB2_20CreateMangaPackInputNtNtCseMgwbgZFWos_13async_graphql4base9InputType5parse
FNDA:0,_RNvXs0_NtNtCs1uU1prdvDfE_7gql_api9mutations10manga_packNtB5_20UpdateMangaPackInputNtNtCseMgwbgZFWos_13async_graphql4base9InputType5parse
FNF:10
FNH:0
DA:11,0
DA:17,0
DA:27,0
DA:28,0
DA:29,0
DA:31,0
DA:32,0
DA:33,0
DA:35,0
DA:36,0
DA:37,0
DA:38,0
DA:39,0
DA:40,0
DA:42,0
DA:43,0
DA:44,0
DA:45,0
DA:46,0
DA:48,0
DA:49,0
DA:50,0
DA:51,0
DA:52,0
DA:53,0
DA:56,0
DA:57,0
DA:59,0
DA:60,0
DA:61,0
DA:63,0
DA:64,0
DA:65,0
DA:66,0
DA:68,0
DA:69,0
DA:70,0
DA:72,0
DA:73,0
DA:74,0
DA:75,0
DA:77,0
DA:78,0
DA:79,0
DA:80,0
DA:81,0
DA:83,0
DA:84,0
DA:85,0
DA:86,0
DA:87,0
DA:88,0
DA:91,0
DA:92,0
DA:94,0
DA:95,0
DA:96,0
DA:98,0
DA:99,0
DA:100,0
DA:101,0
DA:103,0
DA:104,0
DA:105,0
DA:107,0
DA:108,0
DA:109,0
DA:110,0
DA:112,0
DA:113,0
DA:114,0
DA:115,0
DA:116,0
BRF:0
BRH:0
LF:78
LH:0
end_of_record
SF:/mnt/040b9fb6-50c4-4490-87c6-b7dd911435c9/Projects/rust/manga-vault/apps/http/gql/src/mutations/profile.rs
FN:27,_RNCNCNvMs2_NtNtCs1uU1prdvDfE_7gql_api9mutations7profileNtB9_15ProfileMutation14update_profile00Bd_
FN:20,_RNCNvMs2_NtNtCs1uU1prdvDfE_7gql_api9mutations7profileNtB7_15ProfileMutation14update_profile0Bb_
FN:20,_RNvMs2_NtNtCs1uU1prdvDfE_7gql_api9mutations7profileNtB5_15ProfileMutation14update_profile
FN:9,_RNvXNtNtCs1uU1prdvDfE_7gql_api9mutations7profileNtB2_18UpdateProfileInputNtNtCseMgwbgZFWos_13async_graphql4base9InputType5parse
FNDA:0,_RNCNCNvMs2_NtNtCs1uU1prdvDfE_7gql_api9mutations7profileNtB9_15ProfileMutation14update_profile00Bd_
FNDA:0,_RNCNvMs2_NtNtCs1uU1prdvDfE_7gql_api9mutations7profileNtB7_15ProfileMutation14update_profile0Bb_
FNDA:0,_RNvMs2_NtNtCs1uU1prdvDfE_7gql_api9mutations7profileNtB5_15ProfileMutation14update_profile
FNDA:0,_RNvXNtNtCs1uU1prdvDfE_7gql_api9mutations7profileNtB2_18UpdateProfileInputNtNtCseMgwbgZFWos_13async_graphql4base9InputType5parse
FNF:4
FNH:0
DA:9,0
DA:20,0
DA:21,0
DA:22,0
DA:24,0
DA:25,0
DA:26,0
DA:27,0
DA:28,0
DA:30,0
DA:31,0
DA:32,0
DA:33,0
DA:34,0
DA:35,0
DA:37,0
DA:38,0
DA:39,0
DA:40,0
DA:41,0
DA:43,0
DA:44,0
DA:46,0
DA:47,0
DA:48,0
DA:49,0
DA:50,0
DA:52,0
DA:53,0
DA:54,0
BRF:0
BRH:0
LF:32
LH:0
end_of_record
SF:/mnt/040b9fb6-50c4-4490-87c6-b7dd911435c9/Projects/rust/manga-vault/apps/http/gql/src/objects/categories.rs
FN:37,_RNCNCNvMs4_NtNtCs1uU1prdvDfE_7gql_api7objects10categoriesNtB9_8Category4user00Bd_
FN:32,_RNCNvMs4_NtNtCs1uU1prdvDfE_7gql_api7objects10categoriesNtB7_8Category4user0Bb_
FN:32,_RNvMs4_NtNtCs1uU1prdvDfE_7gql_api7objects10categoriesNtB5_8Category4user
FN:20,_RNvXNtNtCs1uU1prdvDfE_7gql_api7objects10categoriesNtB2_8CategoryINtNtCs9bgXZFP4km6_4core7convert4FromNtNtCs5ffTNelr4nn_17database_entities10categories5ModelE4from
FNDA:0,_RNCNCNvMs4_NtNtCs1uU1prdvDfE_7gql_api7objects10categoriesNtB9_8Category4user00Bd_
FNDA:0,_RNCNvMs4_NtNtCs1uU1prdvDfE_7gql_api7objects10categoriesNtB7_8Category4user0Bb_
FNDA:0,_RNvMs4_NtNtCs1uU1prdvDfE_7gql_api7objects10categoriesNtB5_8Category4user
FNDA:0,_RNvXNtNtCs1uU1prdvDfE_7gql_api7objects10categoriesNtB2_8CategoryINtNtCs9bgXZFP4km6_4core7convert4FromNtNtCs5ffTNelr4nn_17database_entities10categories5ModelE4from
FNF:4
FNH:0
DA:20,0
DA:21,0
DA:22,0
DA:23,0
DA:24,0
DA:25,0
DA:26,0
DA:27,0
DA:32,0
DA:33,0
DA:34,0
DA:35,0
DA:36,0
DA:37,0
DA:38,0
DA:39,0
BRF:0
BRH:0
LF:18
LH:0
end_of_record
SF:/mnt/040b9fb6-50c4-4490-87c6-b7dd911435c9/Projects/rust/manga-vault/apps/http/gql/src/objects/chapters.rs
FN:107,_RNCNCNvMs4_NtNtCs1uU1prdvDfE_7gql_api7objects8chaptersNtB9_7Chapter12next_chapter00Bd_
FN:125,_RNCNCNvMs4_NtNtCs1uU1prdvDfE_7gql_api7objects8chaptersNtB9_7Chapter16previous_chapter00Bd_
FN:46,_RNCNCNvMs4_NtNtCs1uU1prdvDfE_7gql_api7objects8chaptersNtB9_7Chapter5manga00Bd_
FN:57,_RNCNCNvMs4_NtNtCs1uU1prdvDfE_7gql_api7objects8chaptersNtB9_7Chapter6images00Bd_
FN:94,_RNCNCNvMs4_NtNtCs1uU1prdvDfE_7gql_api7objects8chaptersNtB9_7Chapter6images0s0_0Bd_
FN:73,_RNCNCNvMs4_NtNtCs1uU1prdvDfE_7gql_api7objects8chaptersNtB9_7Chapter6images0s_0Bd_
FN:147,_RNCNCNvMs4_NtNtCs1uU1prdvDfE_7gql_api7objects8chaptersNtB9_7Chapter7scraper00Bd_
FN:155,_RNCNCNvMs4_NtNtCs1uU1prdvDfE_7gql_api7objects8chaptersNtB9_7Chapter7scraper0s0_0Bd_
FN:153,_RNCNCNvMs4_NtNtCs1uU1prdvDfE_7gql_api7objects8chaptersNtB9_7Chapter7scraper0s_0Bd_
FN:102,_RNCNvMs4_NtNtCs1uU1prdvDfE_7gql_api7objects8chaptersNtB7_7Chapter12next_chapter0Bb_
FN:120,_RNCNvMs4_NtNtCs1uU1prdvDfE_7gql_api7objects8chaptersNtB7_7Chapter16previous_chapter0Bb_
FN:41,_RNCNvMs4_NtNtCs1uU1prdvDfE_7gql_api7objects8chaptersNtB7_7Chapter5manga0Bb_
FN:51,_RNCNvMs4_NtNtCs1uU1prdvDfE_7gql_api7objects8chaptersNtB7_7Chapter6images0Bb_
FN:138,_RNCNvMs4_NtNtCs1uU1prdvDfE_7gql_api7objects8chaptersNtB7_7Chapter7scraper0Bb_
FN:102,_RNvMs4_NtNtCs1uU1prdvDfE_7gql_api7objects8chaptersNtB5_7Chapter12next_chapter
FN:120,_RNvMs4_NtNtCs1uU1prdvDfE_7gql_api7objects8chaptersNtB5_7Chapter16previous_chapter
FN:41,_RNvMs4_NtNtCs1uU1prdvDfE_7gql_api7objects8chaptersNtB5_7Chapter5manga
FN:51,_RNvMs4_NtNtCs1uU1prdvDfE_7gql_api7objects8chaptersNtB5_7Chapter6images
FN:138,_RNvMs4_NtNtCs1uU1prdvDfE_7gql_api7objects8chaptersNtB5_7Chapter7scraper
FN:26,_RNvXNtNtCs1uU1prdvDfE_7gql_api7objects8chaptersNtB2_7ChapterINtNtCs9bgXZFP4km6_4core7convert4FromNtNtCs5ffTNelr4nn_17database_entities8chapters5ModelE4from
FNDA:0,_RNCNCNvMs4_NtNtCs1uU1prdvDfE_7gql_api7objects8chaptersNtB9_7Chapter12next_chapter00Bd_
FNDA:0,_RNCNCNvMs4_NtNtCs1uU1prdvDfE_7gql_api7objects8chaptersNtB9_7Chapter16previous_chapter00Bd_
FNDA:0,_RNCNCNvMs4_NtNtCs1uU1prdvDfE_7gql_api7objects8chaptersNtB9_7Chapter5manga00Bd_
FNDA:0,_RNCNCNvMs4_NtNtCs1uU1prdvDfE_7gql_api7objects8chaptersNtB9_7Chapter6images00Bd_
FNDA:0,_RNCNCNvMs4_NtNtCs1uU1prdvDfE_7gql_api7objects8chaptersNtB9_7Chapter6images0s0_0Bd_
FNDA:0,_RNCNCNvMs4_NtNtCs1uU1prdvDfE_7gql_api7objects8chaptersNtB9_7Chapter6images0s_0Bd_
FNDA:0,_RNCNCNvMs4_NtNtCs1uU1prdvDfE_7gql_api7objects8chaptersNtB9_7Chapter7scraper00Bd_
FNDA:0,_RNCNCNvMs4_NtNtCs1uU1prdvDfE_7gql_api7objects8chaptersNtB9_7Chapter7scraper0s0_0Bd_
FNDA:0,_RNCNCNvMs4_NtNtCs1uU1prdvDfE_7gql_api7objects8chaptersNtB9_7Chapter7scraper0s_0Bd_
FNDA:0,_RNCNvMs4_NtNtCs1uU1prdvDfE_7gql_api7objects8chaptersNtB7_7Chapter12next_chapter0Bb_
FNDA:0,_RNCNvMs4_NtNtCs1uU1prdvDfE_7gql_api7objects8chaptersNtB7_7Chapter16previous_chapter0Bb_
FNDA:0,_RNCNvMs4_NtNtCs1uU1prdvDfE_7gql_api7objects8chaptersNtB7_7Chapter5manga0Bb_
FNDA:0,_RNCNvMs4_NtNtCs1uU1prdvDfE_7gql_api7objects8chaptersNtB7_7Chapter6images0Bb_
FNDA:0,_RNCNvMs4_NtNtCs1uU1prdvDfE_7gql_api7objects8chaptersNtB7_7Chapter7scraper0Bb_
FNDA:0,_RNvMs4_NtNtCs1uU1prdvDfE_7gql_api7objects8chaptersNtB5_7Chapter12next_chapter
FNDA:0,_RNvMs4_NtNtCs1uU1prdvDfE_7gql_api7objects8chaptersNtB5_7Chapter16previous_chapter
FNDA:0,_RNvMs4_NtNtCs1uU1prdvDfE_7gql_api7objects8chaptersNtB5_7Chapter5manga
FNDA:0,_RNvMs4_NtNtCs1uU1prdvDfE_7gql_api7objects8chaptersNtB5_7Chapter6images
FNDA:0,_RNvMs4_NtNtCs1uU1prdvDfE_7gql_api7objects8chaptersNtB5_7Chapter7scraper
FNDA:0,_RNvXNtNtCs1uU1prdvDfE_7gql_api7objects8chaptersNtB2_7ChapterINtNtCs9bgXZFP4km6_4core7convert4FromNtNtCs5ffTNelr4nn_17database_entities8chapters5ModelE4from
FNF:20
FNH:0
DA:26,0
DA:27,0
DA:28,0
DA:29,0
DA:30,0
DA:31,0
DA:32,0
DA:33,0
DA:34,0
DA:35,0
DA:36,0
DA:41,0
DA:42,0
DA:43,0
DA:44,0
DA:45,0
DA:46,0
DA:48,0
DA:49,0
DA:51,0
DA:52,0
DA:54,0
DA:55,0
DA:56,0
DA:57,0
DA:59,0
DA:61,0
DA:62,0
DA:63,0
DA:64,0
DA:66,0
DA:68,0
DA:69,0
DA:70,0
DA:71,0
DA:72,0
DA:73,0
DA:75,0
DA:77,0
DA:79,0
DA:80,0
DA:81,0
DA:82,0
DA:83,0
DA:84,0
DA:85,0
DA:86,0
DA:88,0
DA:89,0
DA:90,0
DA:92,0
DA:94,0
DA:95,0
DA:96,0
DA:99,0
DA:100,0
DA:102,0
DA:103,0
DA:104,0
DA:105,0
DA:106,0
DA:107,0
DA:109,0
DA:110,0
DA:111,0
DA:112,0
DA:113,0
DA:114,0
DA:115,0
DA:117,0
DA:118,0
DA:120,0
DA:121,0
DA:122,0
DA:123,0
DA:124,0
DA:125,0
DA:127,0
DA:128,0
DA:129,0
DA:130,0
DA:131,0
DA:132,0
DA:133,0
DA:135,0
DA:136,0
DA:138,0
DA:139,0
DA:141,0
DA:142,0
DA:143,0
DA:144,0
DA:145,0
DA:146,0
DA:147,0
DA:149,0
DA:150,0
DA:151,0
DA:152,0
DA:153,0
DA:155,0
DA:156,0
BRF:0
BRH:0
LF:116
LH:0
end_of_record
SF:/mnt/040b9fb6-50c4-4490-87c6-b7dd911435c9/Projects/rust/manga-vault/apps/http/gql/src/objects/favorite_mangas.rs
FN:42,_RNCNCNvMs4_NtNtCs1uU1prdvDfE_7gql_api7objects15favorite_mangasNtB9_13FavoriteManga4user00Bd_
FN:51,_RNCNCNvMs4_NtNtCs1uU1prdvDfE_7gql_api7objects15favorite_mangasNtB9_13FavoriteManga5manga00Bd_
FN:60,_RNCNCNvMs4_NtNtCs1uU1prdvDfE_7gql_api7objects15favorite_mangasNtB9_13FavoriteManga8category00Bd_
FN:64,_RNCNvMs4_NtNtCs1uU1prdvDfE_7gql_api7objects15favorite_mangasNtB7_13FavoriteManga4pack0Bb_
FN:37,_RNCNvMs4_NtNtCs1uU1prdvDfE_7gql_api7objects15favorite_mangasNtB7_13FavoriteManga4user0Bb_
FN:46,_RNCNvMs4_NtNtCs1uU1prdvDfE_7gql_api7objects15favorite_mangasNtB7_13FavoriteManga5manga0Bb_
FN:55,_RNCNvMs4_NtNtCs1uU1prdvDfE_7gql_api7objects15favorite_mangasNtB7_13FavoriteManga8category0Bb_
FN:64,_RNvMs4_NtNtCs1uU1prdvDfE_7gql_api7objects15favorite_mangasNtB5_13FavoriteManga4pack
FN:37,_RNvMs4_NtNtCs1uU1prdvDfE_7gql_api7objects15favorite_mangasNtB5_13FavoriteManga4user
FN:46,_RNvMs4_NtNtCs1uU1prdvDfE_7gql_api7objects15favorite_mangasNtB5_13FavoriteManga5manga
FN:55,_RNvMs4_NtNtCs1uU1prdvDfE_7gql_api7objects15favorite_mangasNtB5_13FavoriteManga8category
FN:24,_RNvXNtNtCs1uU1prdvDfE_7gql_api7objects15favorite_mangasNtB2_13FavoriteMangaINtNtCs9bgXZFP4km6_4core7convert4FromNtNtCs5ffTNelr4nn_17database_entities15favorite_mangas5ModelE4from
FNDA:0,_RNCNCNvMs4_NtNtCs1uU1prdvDfE_7gql_api7objects15favorite_mangasNtB9_13FavoriteManga4user00Bd_
FNDA:0,_RNCNCNvMs4_NtNtCs1uU1prdvDfE_7gql_api7objects15favorite_mangasNtB9_13FavoriteManga5manga00Bd_
FNDA:0,_RNCNCNvMs4_NtNtCs1uU1prdvDfE_7gql_api7objects15favorite_mangasNtB9_13FavoriteManga8category00Bd_
FNDA:0,_RNCNvMs4_NtNtCs1uU1prdvDfE_7gql_api7objects15favorite_mangasNtB7_13FavoriteManga4pack0Bb_
FNDA:0,_RNCNvMs4_NtNtCs1uU1prdvDfE_7gql_api7objects15favorite_mangasNtB7_13FavoriteManga4user0Bb_
FNDA:0,_RNCNvMs4_NtNtCs1uU1prdvDfE_7gql_api7objects15favorite_mangasNtB7_13FavoriteManga5manga0Bb_
FNDA:0,_RNCNvMs4_NtNtCs1uU1prdvDfE_7gql_api7objects15favorite_mangasNtB7_13FavoriteManga8category0Bb_
FNDA:0,_RNvMs4_NtNtCs1uU1prdvDfE_7gql_api7objects15favorite_mangasNtB5_13FavoriteManga4pack
FNDA:0,_RNvMs4_NtNtCs1uU1prdvDfE_7gql_api7objects15favorite_mangasNtB5_13FavoriteManga4user
FNDA:0,_RNvMs4_NtNtCs1uU1prdvDfE_7gql_api7objects15favorite_mangasNtB5_13FavoriteManga5manga
FNDA:0,_RNvMs4_NtNtCs1uU1prdvDfE_7gql_api7objects15favorite_mangasNtB5_13FavoriteManga8category
FNDA:0,_RNvXNtNtCs1uU1prdvDfE_7gql_api7objects15favorite_mangasNtB2_13FavoriteMangaINtNtCs9bgXZFP4km6_4core7convert4FromNtNtCs5ffTNelr4nn_17database_entities15favorite_mangas5ModelE4from
FNF:12
FNH:0
DA:24,0
DA:25,0
DA:26,0
DA:27,0
DA:28,0
DA:29,0
DA:30,0
DA:31,0
DA:32,0
DA:37,0
DA:38,0
DA:39,0
DA:40,0
DA:41,0
DA:42,0
DA:43,0
DA:44,0
DA:46,0
DA:47,0
DA:48,0
DA:49,0
DA:50,0
DA:51,0
DA:52,0
DA:53,0
DA:55,0
DA:56,0
DA:57,0
DA:58,0
DA:59,0
DA:60,0
DA:61,0
DA:62,0
DA:64,0
DA:65,0
DA:67,0
DA:68,0
DA:69,0
DA:70,0
DA:72,0
DA:73,0
DA:74,0
DA:76,0
DA:78,0
DA:79,0
DA:80,0
DA:81,0
DA:82,0
DA:84,0
DA:85,0
BRF:0
BRH:0
LF:57
LH:0
end_of_record
SF:/mnt/040b9fb6-50c4-4490-87c6-b7dd911435c9/Projects/rust/manga-vault/apps/http/gql/src/objects/files.rs
FN:37,_RNCNCNvMs4_NtNtCs1uU1prdvDfE_7gql_api7objects5filesNtB9_4File5owner00Bd_
FN:32,_RNCNvMs4_NtNtCs1uU1prdvDfE_7gql_api7objects5filesNtB7_4File5owner0Bb_
FN:32,_RNvMs4_NtNtCs1uU1prdvDfE_7gql_api7objects5filesNtB5_4File5owner
FN:20,_RNvXNtNtCs1uU1prdvDfE_7gql_api7objects5filesNtB2_4FileINtNtCs9bgXZFP4km6_4core7convert4FromNtNtCs5ffTNelr4nn_17database_entities5files5ModelE4from
FNDA:0,_RNCNCNvMs4_NtNtCs1uU1prdvDfE_7gql_api7objects5filesNtB9_4File5owner00Bd_
FNDA:0,_RNCNvMs4_NtNtCs1uU1prdvDfE_7gql_api7objects5filesNtB7_4File5owner0Bb_
FNDA:0,_RNvMs4_NtNtCs1uU1prdvDfE_7gql_api7objects5filesNtB5_4File5owner
FNDA:0,_RNvXNtNtCs1uU1prdvDfE_7gql_api7objects5filesNtB2_4FileINtNtCs9bgXZFP4km6_4core7convert4FromNtNtCs5ffTNelr4nn_17database_entities5files5ModelE4from
FNF:4
FNH:0
DA:20,0
DA:21,0
DA:22,0
DA:23,0
DA:24,0
DA:25,0
DA:26,0
DA:27,0
DA:32,0
DA:33,0
DA:34,0
DA:35,0
DA:36,0
DA:37,0
DA:38,0
DA:39,0
BRF:0
BRH:0
LF:18
LH:0
end_of_record
SF:/mnt/040b9fb6-50c4-4490-87c6-b7dd911435c9/Projects/rust/manga-vault/apps/http/gql/src/objects/manga_packs.rs
FN:34,_RNCNCNvMsa_NtNtCs1uU1prdvDfE_7gql_api7objects11manga_packsNtB9_9MangaPack4user00Bd_
FN:29,_RNCNvMsa_NtNtCs1uU1prdvDfE_7gql_api7objects11manga_packsNtB7_9MangaPack4user0Bb_
FN:38,_RNCNvMsa_NtNtCs1uU1prdvDfE_7gql_api7objects11manga_packsNtB7_9MangaPack6mangas0Bb_
FN:29,_RNvMsa_NtNtCs1uU1prdvDfE_7gql_api7objects11manga_packsNtB5_9MangaPack4user
FN:38,_RNvMsa_NtNtCs1uU1prdvDfE_7gql_api7objects11manga_packsNtB5_9MangaPack6mangas
FN:57,_RNvXNtNtCs1uU1prdvDfE_7gql_api7objects11manga_packsNtB2_9MangaPackINtNtCs9bgXZFP4km6_4core7convert4FromNtNtCs5ffTNelr4nn_17database_entities11manga_packs5ModelE4from
FN:67,_RNvXs_NtNtCs1uU1prdvDfE_7gql_api7objects11manga_packsNtB4_15MangaPackMemberINtNtCs9bgXZFP4km6_4core7convert4FromNtNtCs5ffTNelr4nn_17database_entities18manga_pack_members5ModelE4from
FNDA:0,_RNCNCNvMsa_NtNtCs1uU1prdvDfE_7gql_api7objects11manga_packsNtB9_9MangaPack4user00Bd_
FNDA:0,_RNCNvMsa_NtNtCs1uU1prdvDfE_7gql_api7objects11manga_packsNtB7_9MangaPack4user0Bb_
FNDA:0,_RNCNvMsa_NtNtCs1uU1prdvDfE_7gql_api7objects11manga_packsNtB7_9MangaPack6mangas0Bb_
FNDA:0,_RNvMsa_NtNtCs1uU1prdvDfE_7gql_api7objects11manga_packsNtB5_9MangaPack4user
FNDA:0,_RNvMsa_NtNtCs1uU1prdvDfE_7gql_api7objects11manga_packsNtB5_9MangaPack6mangas
FNDA:0,_RNvXNtNtCs1uU1prdvDfE_7gql_api7objects11manga_packsNtB2_9MangaPackINtNtCs9bgXZFP4km6_4core7convert4FromNtNtCs5ffTNelr4nn_17database_entities11manga_packs5ModelE4from
FNDA:0,_RNvXs_NtNtCs1uU1prdvDfE_7gql_api7objects11manga_packsNtB4_15MangaPackMemberINtNtCs9bgXZFP4km6_4core7convert4FromNtNtCs5ffTNelr4nn_17database_entities18manga_pack_members5ModelE4from
FNF:7
FNH:0
DA:29,0
DA:30,0
DA:31,0
DA:32,0
DA:33,0
DA:34,0
DA:35,0
DA:36,0
DA:38,0
DA:39,0
DA:40,0
DA:41,0
DA:42,0
DA:43,0
DA:45,0
DA:47,0
DA:48,0
DA:49,0
DA:50,0
DA:52,0
DA:53,0
DA:57,0
DA:58,0
DA:59,0
DA:60,0
DA:61,0
DA:62,0
DA:63,0
DA:67,0
DA:68,0
DA:69,0
DA:70,0
DA:71,0
DA:72,0
DA:73,0
BRF:0
BRH:0
LF:38
LH:0
end_of_record
SF:/mnt/040b9fb6-50c4-4490-87c6-b7dd911435c9/Projects/rust/manga-vault/apps/http/gql/src/objects/mangas.rs
FN:123,_RNCNCNvMs4_NtNtCs1uU1prdvDfE_7gql_api7objects6mangasNtB9_5Manga12scraper_info00Bd_
FN:81,_RNCNCNvMs4_NtNtCs1uU1prdvDfE_7gql_api7objects6mangasNtB9_5Manga18user_read_chapters00Bd_
FN:98,_RNCNCNvMs4_NtNtCs1uU1prdvDfE_7gql_api7objects6mangasNtB9_5Manga25user_read_chapters_amount00Bd_
FN:50,_RNCNCNvXNtNtCs1uU1prdvDfE_7gql_api7objects6mangasNtB6_5MangaINtNtCs9bgXZFP4km6_4core7convert4FromNtNtCs5ffTNelr4nn_17database_entities6mangas5ModelE4froms1_00Ba_
FN:54,_RNCNCNvXNtNtCs1uU1prdvDfE_7gql_api7objects6mangasNtB6_5MangaINtNtCs9bgXZFP4km6_4core7convert4FromNtNtCs5ffTNelr4nn_17database_entities6mangas5ModelE4froms3_00Ba_
FN:47,_RNCNCNvXNtNtCs1uU1prdvDfE_7gql_api7objects6mangasNtB6_5MangaINtNtCs9bgXZFP4km6_4core7convert4FromNtNtCs5ffTNelr4nn_17database_entities6mangas5ModelE4froms_00Ba_
FN:118,_RNCNvMs4_NtNtCs1uU1prdvDfE_7gql_api7objects6mangasNtB7_5Manga12scraper_info0Bb_
FN:109,_RNCNvMs4_NtNtCs1uU1prdvDfE_7gql_api7objects6mangasNtB7_5Manga15chapters_amount0Bb_
FN:77,_RNCNvMs4_NtNtCs1uU1prdvDfE_7gql_api7objects6mangasNtB7_5Manga18user_read_chapters0Bb_
FN:94,_RNCNvMs4_NtNtCs1uU1prdvDfE_7gql_api7objects6mangasNtB7_5Manga25user_read_chapters_amount0Bb_
FN:67,_RNCNvMs4_NtNtCs1uU1prdvDfE_7gql_api7objects6mangasNtB7_5Manga8chapters0Bb_
FN:50,_RNCNvXNtNtCs1uU1prdvDfE_7gql_api7objects6mangasNtB4_5MangaINtNtCs9bgXZFP4km6_4core7convert4FromNtNtCs5ffTNelr4nn_17database_entities6mangas5ModelE4froms1_0B8_
FN:54,_RNCNvXNtNtCs1uU1prdvDfE_7gql_api7objects6mangasNtB4_5MangaINtNtCs9bgXZFP4km6_4core7convert4FromNtNtCs5ffTNelr4nn_17database_entities6mangas5ModelE4froms3_0B8_
FN:47,_RNCNvXNtNtCs1uU1prdvDfE_7gql_api7objects6mangasNtB4_5MangaINtNtCs9bgXZFP4km6_4core7convert4FromNtNtCs5ffTNelr4nn_17database_entities6mangas5ModelE4froms_0B8_
FN:118,_RNvMs4_NtNtCs1uU1prdvDfE_7gql_api7objects6mangasNtB5_5Manga12scraper_info
FN:109,_RNvMs4_NtNtCs1uU1prdvDfE_7gql_api7objects6mangasNtB5_5Manga15chapters_amount
FN:77,_RNvMs4_NtNtCs1uU1prdvDfE_7gql_api7objects6mangasNtB5_5Manga18user_read_chapters
FN:94,_RNvMs4_NtNtCs1uU1prdvDfE_7gql_api7objects6mangasNtB5_5Manga25user_read_chapters_amount
FN:67,_RNvMs4_NtNtCs1uU1prdvDfE_7gql_api7objects6mangasNtB5_5Manga8chapters
FN:36,_RNvXNtNtCs1uU1prdvDfE_7gql_api7objects6mangasNtB2_5MangaINtNtCs9bgXZFP4km6_4core7convert4FromNtNtCs5ffTNelr4nn_17database_entities6mangas5ModelE4from
FNDA:0,_RNCNCNvMs4_NtNtCs1uU1prdvDfE_7gql_api7objects6mangasNtB9_5Manga12scraper_info00Bd_
FNDA:0,_RNCNCNvMs4_NtNtCs1uU1prdvDfE_7gql_api7objects6mangasNtB9_5Manga18user_read_chapters00Bd_
FNDA:0,_RNCNCNvMs4_NtNtCs1uU1prdvDfE_7gql_api7objects6mangasNtB9_5Manga25user_read_chapters_amount00Bd_
FNDA:0,_RNCNCNvXNtNtCs1uU1prdvDfE_7gql_api7objects6mangasNtB6_5MangaINtNtCs9bgXZFP4km6_4core7convert4FromNtNtCs5ffTNelr4nn_17database_entities6mangas5ModelE4froms1_00Ba_
FNDA:0,_RNCNCNvXNtNtCs1uU1prdvDfE_7gql_api7objects6mangasNtB6_5MangaINtNtCs9bgXZFP4km6_4core7convert4FromNtNtCs5ffTNelr4nn_17database_entities6mangas5ModelE4froms3_00Ba_
FNDA:0,_RNCNCNvXNtNtCs1uU1prdvDfE_7gql_api7objects6mangasNtB6_5MangaINtNtCs9bgXZFP4km6_4core7convert4FromNtNtCs5ffTNelr4nn_17database_entities6mangas5ModelE4froms_00Ba_
FNDA:0,_RNCNvMs4_NtNtCs1uU1prdvDfE_7gql_api7objects6mangasNtB7_5Manga12scraper_info0Bb_
FNDA:0,_RNCNvMs4_NtNtCs1uU1prdvDfE_7gql_api7objects6mangasNtB7_5Manga15chapters_amount0Bb_
FNDA:0,_RNCNvMs4_NtNtCs1uU1prdvDfE_7gql_api7objects6mangasNtB7_5Manga18user_read_chapters0Bb_
FNDA:0,_RNCNvMs4_NtNtCs1uU1prdvDfE_7gql_api7objects6mangasNtB7_5Manga25user_read_chapters_amount0Bb_
FNDA:0,_RNCNvMs4_NtNtCs1uU1prdvDfE_7gql_api7objects6mangasNtB7_5Manga8chapters0Bb_
FNDA:0,_RNCNvXNtNtCs1uU1prdvDfE_7gql_api7objects6mangasNtB4_5MangaINtNtCs9bgXZFP4km6_4core7convert4FromNtNtCs5ffTNelr4nn_17database_entities6mangas5ModelE4froms1_0B8_
FNDA:0,_RNCNvXNtNtCs1uU1prdvDfE_7gql_api7objects6mangasNtB4_5MangaINtNtCs9bgXZFP4km6_4core7convert4FromNtNtCs5ffTNelr4nn_17database_entities6mangas5ModelE4froms3_0B8_
FNDA:0,_RNCNvXNtNtCs1uU1prdvDfE_7gql_api7objects6mangasNtB4_5MangaINtNtCs9bgXZFP4km6_4core7convert4FromNtNtCs5ffTNelr4nn_17database_entities6mangas5ModelE4froms_0B8_
FNDA:0,_RNvMs4_NtNtCs1uU1prdvDfE_7gql_api7objects6mangasNtB5_5Manga12scraper_info
FNDA:0,_RNvMs4_NtNtCs1uU1prdvDfE_7gql_api7objects6mangasNtB5_5Manga15chapters_amount
FNDA:0,_RNvMs4_NtNtCs1uU1prdvDfE_7gql_api7objects6mangasNtB5_5Manga18user_read_chapters
FNDA:0,_RNvMs4_NtNtCs1uU1prdvDfE_7gql_api7objects6mangasNtB5_5Manga25user_read_chapters_amount
FNDA:0,_RNvMs4_NtNtCs1uU1prdvDfE_7gql_api7objects6mangasNtB5_5Manga8chapters
FNDA:0,_RNvXNtNtCs1uU1prdvDfE_7gql_api7objects6mangasNtB2_5MangaINtNtCs9bgXZFP4km6_4core7convert4FromNtNtCs5ffTNelr4nn_17database_entities6mangas5ModelE4from
FNF:20
FNH:0
DA:36,0
DA:38,0
DA:39,0
DA:40,0
DA:41,0
DA:42,0
DA:43,0
DA:44,0
DA:45,0
DA:46,0
DA:47,0
DA:48,0
DA:50,0
DA:52,0
DA:54,0
DA:56,0
DA:57,0
DA:58,0
DA:59,0
DA:60,0
DA:62,0
DA:67,0
DA:68,0
DA:69,0
DA:70,0
DA:71,0
DA:72,0
DA:73,0
DA:74,0
DA:75,0
DA:77,0
DA:78,0
DA:79,0
DA:80,0
DA:81,0
DA:82,0
DA:84,0
DA:85,0
DA:86,0
DA:87,0
DA:88,0
DA:89,0
DA:91,0
DA:92,0
DA:94,0
DA:95,0
DA:96,0
DA:97,0
DA:98,0
DA:99,0
DA:101,0
DA:102,0
DA:103,0
DA:104,0
DA:105,0
DA:106,0
DA:107,0
DA:109,0
DA:110,0
DA:111,0
DA:112,0
DA:113,0
DA:114,0
DA:115,0
DA:116,0
DA:118,0
DA:119,0
DA:120,0
DA:121,0
DA:122,0
DA:123,0
DA:125,0
DA:126,0
BRF:0
BRH:0
LF:85
LH:0
end_of_record
SF:/mnt/040b9fb6-50c4-4490-87c6-b7dd911435c9/Projects/rust/manga-vault/apps/http/gql/src/objects/read_chapters.rs
FN:38,_RNCNCNvMs4_NtNtCs1uU1prdvDfE_7gql_api7objects13read_chaptersNtB9_11ReadChapter4user00Bd_
FN:58,_RNCNCNvMs4_NtNtCs1uU1prdvDfE_7gql_api7objects13read_chaptersNtB9_11ReadChapter5manga00Bd_
FN:48,_RNCNCNvMs4_NtNtCs1uU1prdvDfE_7gql_api7objects13read_chaptersNtB9_11ReadChapter7chapter00Bd_
FN:33,_RNCNvMs4_NtNtCs1uU1prdvDfE_7gql_api7objects13read_chaptersNtB7_11ReadChapter4user0Bb_
FN:53,_RNCNvMs4_NtNtCs1uU1prdvDfE_7gql_api7objects13read_chaptersNtB7_11ReadChapter5manga0Bb_
FN:43,_RNCNvMs4_NtNtCs1uU1prdvDfE_7gql_api7objects13read_chaptersNtB7_11ReadChapter7chapter0Bb_
FN:33,_RNvMs4_NtNtCs1uU1prdvDfE_7gql_api7objects13read_chaptersNtB5_11ReadChapter4user
FN:53,_RNvMs4_NtNtCs1uU1prdvDfE_7gql_api7objects13read_chaptersNtB5_11ReadChapter5manga
FN:43,_RNvMs4_NtNtCs1uU1prdvDfE_7gql_api7objects13read_chaptersNtB5_11ReadChapter7chapter
FN:20,_RNvXNtNtCs1uU1prdvDfE_7gql_api7objects13read_chaptersNtB2_11ReadChapterINtNtCs9bgXZFP4km6_4core7convert4FromNtNtCs5ffTNelr4nn_17database_entities13read_chapters5ModelE4from
FNDA:0,_RNCNCNvMs4_NtNtCs1uU1prdvDfE_7gql_api7objects13read_chaptersNtB9_11ReadChapter4user00Bd_
FNDA:0,_RNCNCNvMs4_NtNtCs1uU1prdvDfE_7gql_api7objects13read_chaptersNtB9_11ReadChapter5manga00Bd_
FNDA:0,_RNCNCNvMs4_NtNtCs1uU1prdvDfE_7gql_api7objects13read_chaptersNtB9_11ReadChapter7chapter00Bd_
FNDA:0,_RNCNvMs4_NtNtCs1uU1prdvDfE_7gql_api7objects13read_chaptersNtB7_11ReadChapter4user0Bb_
FNDA:0,_RNCNvMs4_NtNtCs1uU1prdvDfE_7gql_api7objects13read_chaptersNtB7_11ReadChapter5manga0Bb_
FNDA:0,_RNCNvMs4_NtNtCs1uU1prdvDfE_7gql_api7objects13read_chaptersNtB7_11ReadChapter7chapter0Bb_
FNDA:0,_RNvMs4_NtNtCs1uU1prdvDfE_7gql_api7objects13read_chaptersNtB5_11ReadChapter4user
FNDA:0,_RNvMs4_NtNtCs1uU1prdvDfE_7gql_api7objects13read_chaptersNtB5_11ReadChapter5manga
FNDA:0,_RNvMs4_NtNtCs1uU1prdvDfE_7gql_api7objects13read_chaptersNtB5_11ReadChapter7chapter
FNDA:0,_RNvXNtNtCs1uU1prdvDfE_7gql_api7objects13read_chaptersNtB2_11ReadChapterINtNtCs9bgXZFP4km6_4core7convert4FromNtNtCs5ffTNelr4nn_17database_entities13read_chapters5ModelE4from
FNF:10
FNH:0
DA:20,0
DA:21,0
DA:22,0
DA:23,0
DA:24,0
DA:25,0
DA:26,0
DA:27,0
DA:28,0
DA:33,0
DA:34,0
DA:35,0
DA:36,0
DA:37,0
DA:38,0
DA:40,0
DA:41,0
DA:43,0
DA:44,0
DA:45,0
DA:46,0
DA:47,0
DA:48,0
DA:50,0
DA:51,0
DA:53,0
DA:54,0
DA:55,0
DA:56,0
DA:57,0
DA:58,0
DA:60,0
DA:61,0
BRF:0
BRH:0
LF:39
LH:0
end_of_record
SF:/mnt/040b9fb6-50c4-4490-87c6-b7dd911435c9/Projects/rust/manga-vault/apps/http/gql/src/objects/scraper.rs
FN:16,_RNCNvMNtNtCs1uU1prdvDfE_7gql_api7objects7scraperNtB4_7Scraper11from_plugin0B8_
FN:16,_RNvMNtNtCs1uU1prdvDfE_7gql_api7objects7scraperNtB2_7Scraper11from_plugin
FNDA:0,_RNCNvMNtNtCs1uU1prdvDfE_7gql_api7objects7scraperNtB4_7Scraper11from_plugin0B8_
FNDA:0,_RNvMNtNtCs1uU1prdvDfE_7gql_api7objects7scraperNtB2_7Scraper11from_plugin
FNF:2
FNH:0
DA:16,0
DA:17,0
DA:19,0
DA:20,0
DA:21,0
DA:22,0
DA:23,0
DA:24,0
DA:25,0
BRF:0
BRH:0
LF:10
LH:0
end_of_record
SF:/mnt/040b9fb6-50c4-4490-87c6-b7dd911435c9/Projects/rust/manga-vault/apps/http/gql/src/objects/temp.rs
FN:14,_RNvXNtNtCs1uU1prdvDfE_7gql_api7objects4tempNtB2_4TempINtNtCs9bgXZFP4km6_4core7convert4FromNtNtCs5ffTNelr4nn_17database_entities4temp5ModelE4from
FNDA:0,_RNvXNtNtCs1uU1prdvDfE_7gql_api7objects4tempNtB2_4TempINtNtCs9bgXZFP4km6_4core7convert4FromNtNtCs5ffTNelr4nn_17database_entities4temp5ModelE4from
FNF:1
FNH:0
DA:14,0
DA:15,0
DA:16,0
DA:17,0
DA:18,0
DA:19,0
DA:20,0
DA:21,0
BRF:0
BRH:0
LF:8
LH:0
end_of_record
SF:/mnt/040b9fb6-50c4-4490-87c6-b7dd911435c9/Projects/rust/manga-vault/apps/http/gql/src/objects/users.rs
FN:71,_RNCNCNvMs8_NtNtCs1uU1prdvDfE_7gql_api7objects5usersNtB9_4User19image_from_image_id00Bd_
FN:65,_RNCNvMs8_NtNtCs1uU1prdvDfE_7gql_api7objects5usersNtB7_4User19image_from_image_id0Bb_
FN:65,_RNvMs8_NtNtCs1uU1prdvDfE_7gql_api7objects5usersNtB5_4User19image_from_image_id
FN:21,_RNvXNtNtCs1uU1prdvDfE_7gql_api7objects5usersNtB2_7RawUserINtNtCs9bgXZFP4km6_4core7convert4FromNtNtCs5ffTNelr4nn_17database_entities5users5ModelE4from
FN:53,_RNvXs0_NtNtCs1uU1prdvDfE_7gql_api7objects5usersNtB5_4UserINtNtCs9bgXZFP4km6_4core7convert4FromNtB5_7RawUserE4from
FN:42,_RNvXs_NtNtCs1uU1prdvDfE_7gql_api7objects5usersNtB4_4UserINtNtCs9bgXZFP4km6_4core7convert4FromNtNtCs5ffTNelr4nn_17database_entities5users5ModelE4from
FNDA:0,_RNCNCNvMs8_NtNtCs1uU1prdvDfE_7gql_api7objects5usersNtB9_4User19image_from_image_id00Bd_
FNDA:0,_RNCNvMs8_NtNtCs1uU1prdvDfE_7gql_api7objects5usersNtB7_4User19image_from_image_id0Bb_
FNDA:0,_RNvMs8_NtNtCs1uU1prdvDfE_7gql_api7objects5usersNtB5_4User19image_from_image_id
FNDA:0,_RNvXNtNtCs1uU1prdvDfE_7gql_api7objects5usersNtB2_7RawUserINtNtCs9bgXZFP4km6_4core7convert4FromNtNtCs5ffTNelr4nn_17database_entities5users5ModelE4from
FNDA:0,_RNvXs0_NtNtCs1uU1prdvDfE_7gql_api7objects5usersNtB5_4UserINtNtCs9bgXZFP4km6_4core7convert4FromNtB5_7RawUserE4from
FNDA:0,_RNvXs_NtNtCs1uU1prdvDfE_7gql_api7objects5usersNtB4_4UserINtNtCs9bgXZFP4km6_4core7convert4FromNtNtCs5ffTNelr4nn_17database_entities5users5ModelE4from
FNF:6
FNH:0
DA:21,0
DA:22,0
DA:23,0
DA:24,0
DA:25,0
DA:26,0
DA:27,0
DA:28,0
DA:29,0
DA:42,0
DA:43,0
DA:44,0
DA:45,0
DA:46,0
DA:47,0
DA:48,0
DA:49,0
DA:53,0
DA:54,0
DA:55,0
DA:56,0
DA:57,0
DA:58,0
DA:59,0
DA:60,0
DA:65,0
DA:66,0
DA:67,0
DA:68,0
DA:69,0
DA:70,0
DA:71,0
DA:72,0
DA:74,0
DA:76,0
BRF:0
BRH:0
LF:37
LH:0
end_of_record
SF:/mnt/040b9fb6-50c4-4490-87c6-b7dd911435c9/Projects/rust/manga-vault/apps/http/gql/src/queries/category.rs
FN:25,_RNCNCNvMs_NtNtCs1uU1prdvDfE_7gql_api7queries8categoryNtB8_13CategoryQuery15user_categories00Bc_
FN:21,_RNCNvMs_NtNtCs1uU1prdvDfE_7gql_api7queries8categoryNtB6_13CategoryQuery15user_categories0Ba_
FN:15,_RNCNvMs_NtNtCs1uU1prdvDfE_7gql_api7queries8categoryNtB6_13CategoryQuery8category0Ba_
FN:21,_RNvMs_NtNtCs1uU1prdvDfE_7gql_api7queries8categoryNtB4_13CategoryQuery15user_categories
FN:15,_RNvMs_NtNtCs1uU1prdvDfE_7gql_api7queries8categoryNtB4_13CategoryQuery8category
FNDA:0,_RNCNCNvMs_NtNtCs1uU1prdvDfE_7gql_api7queries8categoryNtB8_13CategoryQuery15user_categories00Bc_
FNDA:0,_RNCNvMs_NtNtCs1uU1prdvDfE_7gql_api7queries8categoryNtB6_13CategoryQuery15user_categories0Ba_
FNDA:0,_RNCNvMs_NtNtCs1uU1prdvDfE_7gql_api7queries8categoryNtB6_13CategoryQuery8category0Ba_
FNDA:0,_RNvMs_NtNtCs1uU1prdvDfE_7gql_api7queries8categoryNtB4_13CategoryQuery15user_categories
FNDA:0,_RNvMs_NtNtCs1uU1prdvDfE_7gql_api7queries8categoryNtB4_13CategoryQuery8category
FNF:5
FNH:0
DA:15,0
DA:16,0
DA:17,0
DA:18,0
DA:19,0
DA:21,0
DA:22,0
DA:23,0
DA:24,0
DA:25,0
DA:26,0
DA:27,0
DA:28,0
DA:29,0
DA:30,0
DA:31,0
DA:32,0
BRF:0
BRH:0
LF:20
LH:0
end_of_record
SF:/mnt/040b9fb6-50c4-4490-87c6-b7dd911435c9/Projects/rust/manga-vault/apps/http/gql/src/queries/chapter.rs
FN:27,_RNCNvMs_NtNtCs1uU1prdvDfE_7gql_api7queries7chapterNtB6_12ChapterQuery17chapters_by_manga0Ba_
FN:15,_RNCNvMs_NtNtCs1uU1prdvDfE_7gql_api7queries7chapterNtB6_12ChapterQuery7chapter0Ba_
FN:21,_RNvMs_NtNtCs1uU1prdvDfE_7gql_api7queries7chapterNtB4_12ChapterQuery17chapters_by_manga
FN:15,_RNvMs_NtNtCs1uU1prdvDfE_7gql_api7queries7chapterNtB4_12ChapterQuery7chapter
FNDA:0,_RNCNvMs_NtNtCs1uU1prdvDfE_7gql_api7queries7chapterNtB6_12ChapterQuery17chapters_by_manga0Ba_
FNDA:0,_RNCNvMs_NtNtCs1uU1prdvDfE_7gql_api7queries7chapterNtB6_12ChapterQuery7chapter0Ba_
FNDA:0,_RNvMs_NtNtCs1uU1prdvDfE_7gql_api7queries7chapterNtB4_12ChapterQuery17chapters_by_manga
FNDA:0,_RNvMs_NtNtCs1uU1prdvDfE_7gql_api7queries7chapterNtB4_12ChapterQuery7chapter
FNF:4
FNH:0
DA:15,0
DA:16,0
DA:17,0
DA:18,0
DA:19,0
DA:21,0
DA:22,0
DA:23,0
DA:24,0
DA:25,0
DA:26,0
DA:27,0
DA:28,0
DA:29,0
DA:30,0
DA:32,0
DA:33,0
DA:34,0
DA:35,0
DA:36,0
DA:37,0
DA:39,0
DA:40,0
BRF:0
BRH:0
LF:25
LH:0
end_of_record
SF:/mnt/040b9fb6-50c4-4490-87c6-b7dd911435c9/Projects/rust/manga-vault/apps/http/gql/src/queries/favorite_manga.rs
FN:63,_RNCNCNvMs_NtNtCs1uU1prdvDfE_7gql_api7queries14favorite_mangaNtB8_18FavoriteMangaQuery16is_user_favorite00Bc_
FN:42,_RNCNCNvMs_NtNtCs1uU1prdvDfE_7gql_api7queries14favorite_mangaNtB8_18FavoriteMangaQuery20user_favorite_mangas00Bc_
FN:27,_RNCNCNvMs_NtNtCs1uU1prdvDfE_7gql_api7queries14favorite_mangaNtB8_18FavoriteMangaQuery26favorite_manga_by_manga_id00Bc_
FN:15,_RNCNvMs_NtNtCs1uU1prdvDfE_7gql_api7queries14favorite_mangaNtB6_18FavoriteMangaQuery14favorite_manga0Ba_
FN:59,_RNCNvMs_NtNtCs1uU1prdvDfE_7gql_api7queries14favorite_mangaNtB6_18FavoriteMangaQuery16is_user_favorite0Ba_
FN:38,_RNCNvMs_NtNtCs1uU1prdvDfE_7gql_api7queries14favorite_mangaNtB6_18FavoriteMangaQuery20user_favorite_mangas0Ba_
FN:23,_RNCNvMs_NtNtCs1uU1prdvDfE_7gql_api7queries14favorite_mangaNtB6_18FavoriteMangaQuery26favorite_manga_by_manga_id0Ba_
FN:15,_RNvMs_NtNtCs1uU1prdvDfE_7gql_api7queries14favorite_mangaNtB4_18FavoriteMangaQuery14favorite_manga
FN:59,_RNvMs_NtNtCs1uU1prdvDfE_7gql_api7queries14favorite_mangaNtB4_18FavoriteMangaQuery16is_user_favorite
FN:38,_RNvMs_NtNtCs1uU1prdvDfE_7gql_api7queries14favorite_mangaNtB4_18FavoriteMangaQuery20user_favorite_mangas
FN:23,_RNvMs_NtNtCs1uU1prdvDfE_7gql_api7queries14favorite_mangaNtB4_18FavoriteMangaQuery26favorite_manga_by_manga_id
FNDA:0,_RNCNCNvMs_NtNtCs1uU1prdvDfE_7gql_api7queries14favorite_mangaNtB8_18FavoriteMangaQuery16is_user_favorite00Bc_
FNDA:0,_RNCNCNvMs_NtNtCs1uU1prdvDfE_7gql_api7queries14favorite_mangaNtB8_18FavoriteMangaQuery20user_favorite_mangas00Bc_
FNDA:0,_RNCNCNvMs_NtNtCs1uU1prdvDfE_7gql_api7queries14favorite_mangaNtB8_18FavoriteMangaQuery26favorite_manga_by_manga_id00Bc_
FNDA:0,_RNCNvMs_NtNtCs1uU1prdvDfE_7gql_api7queries14favorite_mangaNtB6_18FavoriteMangaQuery14favorite_manga0Ba_
FNDA:0,_RNCNvMs_NtNtCs1uU1prdvDfE_7gql_api7queries14favorite_mangaNtB6_18FavoriteMangaQuery16is_user_favorite0Ba_
FNDA:0,_RNCNvMs_NtNtCs1uU1prdvDfE_7gql_api7queries14favorite_mangaNtB6_18FavoriteMangaQuery20user_favorite_mangas0Ba_
FNDA:0,_RNCNvMs_NtNtCs1uU1prdvDfE_7gql_api7queries14favorite_mangaNtB6_18FavoriteMangaQuery26favorite_manga_by_manga_id0Ba_
FNDA:0,_RNvMs_NtNtCs1uU1prdvDfE_7gql_api7queries14favorite_mangaNtB4_18FavoriteMangaQuery14favorite_manga
FNDA:0,_RNvMs_NtNtCs1uU1prdvDfE_7gql_api7queries14favorite_mangaNtB4_18FavoriteMangaQuery16is_user_favorite
FNDA:0,_RNvMs_NtNtCs1uU1prdvDfE_7gql_api7queries14favorite_mangaNtB4_18FavoriteMangaQuery20user_favorite_mangas
FNDA:0,_RNvMs_NtNtCs1uU1prdvDfE_7gql_api7queries14favorite_mangaNtB4_18FavoriteMangaQuery26favorite_manga_by_manga_id
FNF:11
FNH:0
DA:15,0
DA:16,0
DA:17,0
DA:18,0
DA:19,0
DA:20,0
DA:21,0
DA:23,0
DA:24,0
DA:25,0
DA:26,0
DA:27,0
DA:28,0
DA:30,0
DA:31,0
DA:32,0
DA:33,0
DA:34,0
DA:35,0
DA:36,0
DA:38,0
DA:39,0
DA:40,0
DA:41,0
DA:42,0
DA:43,0
DA:44,0
DA:45,0
DA:47,0
DA:48,0
DA:49,0
DA:51,0
DA:52,0
DA:53,0
DA:54,0
DA:56,0
DA:57,0
DA:59,0
DA:60,0
DA:61,0
DA:62,0
DA:63,0
DA:64,0
DA:66,0
DA:67,0
DA:68,0
DA:69,0
DA:70,0
DA:72,0
DA:73,0
BRF:0
BRH:0
LF:57
LH:0
end_of_record
SF:/mnt/040b9fb6-50c4-4490-87c6-b7dd911435c9/Projects/rust/manga-vault/apps/http/gql/src/queries/file.rs
FN:20,_RNCNCNvMs_NtNtCs1uU1prdvDfE_7gql_api7queries4fileNtB8_9FileQuery5files00Bc_
FN:15,_RNCNvMs_NtNtCs1uU1prdvDfE_7gql_api7queries4fileNtB6_9FileQuery5files0Ba_
FN:15,_RNvMs_NtNtCs1uU1prdvDfE_7gql_api7queries4fileNtB4_9FileQuery5files
FNDA:0,_RNCNCNvMs_NtNtCs1uU1prdvDfE_7gql_api7queries4fileNtB8_9FileQuery5files00Bc_
FNDA:0,_RNCNvMs_NtNtCs1uU1prdvDfE_7gql_api7queries4fileNtB6_9FileQuery5files0Ba_
FNDA:0,_RNvMs_NtNtCs1uU1prdvDfE_7gql_api7queries4fileNtB4_9FileQuery5files
FNF:3
FNH:0
DA:15,0
DA:16,0
DA:17,0
DA:18,0
DA:19,0
DA:20,0
DA:22,0
DA:23,0
DA:24,0
DA:25,0
DA:27,0
DA:28,0
BRF:0
BRH:0
LF:14
LH:0
end_of_record
SF:/mnt/040b9fb6-50c4-4490-87c6-b7dd911435c9/Projects/rust/manga-vault/apps/http/gql/src/queries/manga.rs
FN:50,_RNCNCNvMNtNtCs1uU1prdvDfE_7gql_api7queries5mangaNtB6_10MangaQuery11get_scraper00Ba_
FN:65,_RNCNCNvMNtNtCs1uU1prdvDfE_7gql_api7queries5mangaNtB6_10MangaQuery23scrape_and_update_manga00Ba_
FN:93,_RNCNCNvMNtNtCs1uU1prdvDfE_7gql_api7queries5mangaNtB6_10MangaQuery23scrape_and_update_manga0s0_0Ba_
FN:98,_RNCNCNvMNtNtCs1uU1prdvDfE_7gql_api7queries5mangaNtB6_10MangaQuery23scrape_and_update_manga0s1_0Ba_
FN:100,_RNCNCNvMNtNtCs1uU1prdvDfE_7gql_api7queries5mangaNtB6_10MangaQuery23scrape_and_update_manga0s2_0Ba_
FN:85,_RNCNCNvMNtNtCs1uU1prdvDfE_7gql_api7queries5mangaNtB6_10MangaQuery23scrape_and_update_manga0s_0Ba_
FN:46,_RNCNvMNtNtCs1uU1prdvDfE_7gql_api7queries5mangaNtB4_10MangaQuery11get_scraper0B8_
FN:57,_RNCNvMNtNtCs1uU1prdvDfE_7gql_api7queries5mangaNtB4_10MangaQuery23scrape_and_update_manga0B8_
FN:34,_RNCNvMs0_NtNtCs1uU1prdvDfE_7gql_api7queries5mangaNtB7_10MangaQuery13mangas_by_ids0Bb_
FN:16,_RNCNvMs0_NtNtCs1uU1prdvDfE_7gql_api7queries5mangaNtB7_10MangaQuery5manga0Bb_
FN:46,_RNvMNtNtCs1uU1prdvDfE_7gql_api7queries5mangaNtB2_10MangaQuery11get_scraper
FN:53,_RNvMNtNtCs1uU1prdvDfE_7gql_api7queries5mangaNtB2_10MangaQuery23scrape_and_update_manga
FN:34,_RNvMs0_NtNtCs1uU1prdvDfE_7gql_api7queries5mangaNtB5_10MangaQuery13mangas_by_ids
FN:16,_RNvMs0_NtNtCs1uU1prdvDfE_7gql_api7queries5mangaNtB5_10MangaQuery5manga
FNDA:0,_RNCNCNvMNtNtCs1uU1prdvDfE_7gql_api7queries5mangaNtB6_10MangaQuery11get_scraper00Ba_
FNDA:0,_RNCNCNvMNtNtCs1uU1prdvDfE_7gql_api7queries5mangaNtB6_10MangaQuery23scrape_and_update_manga00Ba_
FNDA:0,_RNCNCNvMNtNtCs1uU1prdvDfE_7gql_api7queries5mangaNtB6_10MangaQuery23scrape_and_update_manga0s0_0Ba_
FNDA:0,_RNCNCNvMNtNtCs1uU1prdvDfE_7gql_api7queries5mangaNtB6_10MangaQuery23scrape_and_update_manga0s1_0Ba_
FNDA:0,_RNCNCNvMNtNtCs1uU1prdvDfE_7gql_api7queries5mangaNtB6_10MangaQuery23scrape_and_update_manga0s2_0Ba_
FNDA:0,_RNCNCNvMNtNtCs1uU1prdvDfE_7gql_api7queries5mangaNtB6_10MangaQuery23scrape_and_update_manga0s_0Ba_
FNDA:0,_RNCNvMNtNtCs1uU1prdvDfE_7gql_api7queries5mangaNtB4_10MangaQuery11get_scraper0B8_
FNDA:0,_RNCNvMNtNtCs1uU1prdvDfE_7gql_api7queries5mangaNtB4_10MangaQuery23scrape_and_update_manga0B8_
FNDA:0,_RNCNvMs0_NtNtCs1uU1prdvDfE_7gql_api7queries5mangaNtB7_10MangaQuery13mangas_by_ids0Bb_
FNDA:0,_RNCNvMs0_NtNtCs1uU1prdvDfE_7gql_api7queries5mangaNtB7_10MangaQuery5manga0Bb_
FNDA:0,_RNvMNtNtCs1uU1prdvDfE_7gql_api7queries5mangaNtB2_10MangaQuery11get_scraper
FNDA:0,_RNvMNtNtCs1uU1prdvDfE_7gql_api7queries5mangaNtB2_10MangaQuery23scrape_and_update_manga
FNDA:0,_RNvMs0_NtNtCs1uU1prdvDfE_7gql_api7queries5mangaNtB5_10MangaQuery13mangas_by_ids
FNDA:0,_RNvMs0_NtNtCs1uU1prdvDfE_7gql_api7queries5mangaNtB5_10MangaQuery5manga
FNF:14
FNH:0
DA:16,0
DA:17,0
DA:18,0
DA:20,0
DA:21,0
DA:22,0
DA:23,0
DA:24,0
DA:25,0
DA:26,0
DA:27,0
DA:28,0
DA:30,0
DA:32,0
DA:34,0
DA:35,0
DA:36,0
DA:37,0
DA:38,0
DA:39,0
DA:41,0
DA:42,0
DA:46,0
DA:47,0
DA:48,0
DA:49,0
DA:50,0
DA:51,0
DA:53,0
DA:54,0
DA:55,0
DA:56,0
DA:57,0
DA:58,0
DA:59,0
DA:60,0
DA:62,0
DA:63,0
DA:64,0
DA:65,0
DA:66,0
DA:68,0
DA:70,0
DA:71,0
DA:72,0
DA:73,0
DA:74,0
DA:75,0
DA:76,0
DA:77,0
DA:78,0
DA:79,0
DA:80,0
DA:81,0
DA:83,0
DA:85,0
DA:87,0
DA:88,0
DA:89,0
DA:90,0
DA:91,0
DA:93,0
DA:95,0
DA:96,0
DA:97,0
DA:98,0
DA:99,0
DA:100,0
DA:101,0
DA:102,0
DA:103,0
DA:104,0
DA:105,0
DA:106,0
DA:107,0
DA:108,0
DA:110,0
DA:111,0
DA:112,0
DA:113,0
DA:114,0
DA:116,0
DA:117,0
BRF:0
BRH:0
LF:92
LH:0
end_of_record
SF:/mnt/040b9fb6-50c4-4490-87c6-b7dd911435c9/Projects/rust/manga-vault/apps/http/gql/src/queries/manga_pack.rs
FN:25,_RNCNCNvMs_NtNtCs1uU1prdvDfE_7gql_api7queries10manga_packNtB8_14MangaPackQuery16user_manga_packs00Bc_
FN:15,_RNCNvMs_NtNtCs1uU1prdvDfE_7gql_api7queries10manga_packNtB6_14MangaPackQuery10manga_pack0Ba_
FN:21,_RNCNvMs_NtNtCs1uU1prdvDfE_7gql_api7queries10manga_packNtB6_14MangaPackQuery16user_manga_packs0Ba_
FN:15,_RNvMs_NtNtCs1uU1prdvDfE_7gql_api7queries10manga_packNtB4_14MangaPackQuery10manga_pack
FN:21,_RNvMs_NtNtCs1uU1prdvDfE_7gql_api7queries10manga_packNtB4_14MangaPackQuery16user_manga_packs
FNDA:0,_RNCNCNvMs_NtNtCs1uU1prdvDfE_7gql_api7queries10manga_packNtB8_14MangaPackQuery16user_manga_packs00Bc_
FNDA:0,_RNCNvMs_NtNtCs1uU1prdvDfE_7gql_api7queries10manga_packNtB6_14MangaPackQuery10manga_pack0Ba_
FNDA:0,_RNCNvMs_NtNtCs1uU1prdvDfE_7gql_api7queries10manga_packNtB6_14MangaPackQuery16user_manga_packs0Ba_
FNDA:0,_RNvMs_NtNtCs1uU1prdvDfE_7gql_api7queries10manga_packNtB4_14MangaPackQuery10manga_pack
FNDA:0,_RNvMs_NtNtCs1uU1prdvDfE_7gql_api7queries10manga_packNtB4_14MangaPackQuery16user_manga_packs
FNF:5
FNH:0
DA:15,0
DA:16,0
DA:17,0
DA:18,0
DA:19,0
DA:21,0
DA:22,0
DA:23,0
DA:24,0
DA:25,0
DA:26,0
DA:27,0
DA:28,0
DA:29,0
DA:30,0
DA:31,0
DA:32,0
BRF:0
BRH:0
LF:20
LH:0
end_of_record
SF:/mnt/040b9fb6-50c4-4490-87c6-b7dd911435c9/Projects/rust/manga-vault/apps/http/gql/src/queries/read_chapter.rs
FN:25,_RNCNCNvMs_NtNtCs1uU1prdvDfE_7gql_api7queries12read_chapterNtB8_16ReadChapterQuery27user_read_chapters_by_manga00Bc_
FN:15,_RNCNvMs_NtNtCs1uU1prdvDfE_7gql_api7queries12read_chapterNtB6_16ReadChapterQuery12read_chapter0Ba_
FN:21,_RNCNvMs_NtNtCs1uU1prdvDfE_7gql_api7queries12read_chapterNtB6_16ReadChapterQuery27user_read_chapters_by_manga0Ba_
FN:15,_RNvMs_NtNtCs1uU1prdvDfE_7gql_api7queries12read_chapterNtB4_16ReadChapterQuery12read_chapter
FN:21,_RNvMs_NtNtCs1uU1prdvDfE_7gql_api7queries12read_chapterNtB4_16ReadChapterQuery27user_read_chapters_by_manga
FNDA:0,_RNCNCNvMs_NtNtCs1uU1prdvDfE_7gql_api7queries12read_chapterNtB8_16ReadChapterQuery27user_read_chapters_by_manga00Bc_
FNDA:0,_RNCNvMs_NtNtCs1uU1prdvDfE_7gql_api7queries12read_chapterNtB6_16ReadChapterQuery12read_chapter0Ba_
FNDA:0,_RNCNvMs_NtNtCs1uU1prdvDfE_7gql_api7queries12read_chapterNtB6_16ReadChapterQuery27user_read_chapters_by_manga0Ba_
FNDA:0,_RNvMs_NtNtCs1uU1prdvDfE_7gql_api7queries12read_chapterNtB4_16ReadChapterQuery12read_chapter
FNDA:0,_RNvMs_NtNtCs1uU1prdvDfE_7gql_api7queries12read_chapterNtB4_16ReadChapterQuery27user_read_chapters_by_manga
FNF:5
FNH:0
DA:15,0
DA:16,0
DA:17,0
DA:18,0
DA:19,0
DA:21,0
DA:22,0
DA:23,0
DA:24,0
DA:25,0
DA:26,0
DA:27,0
DA:28,0
DA:30,0
DA:31,0
DA:32,0
DA:34,0
DA:35,0
DA:36,0
DA:37,0
DA:39,0
DA:40,0
BRF:0
BRH:0
LF:25
LH:0
end_of_record
SF:/mnt/040b9fb6-50c4-4490-87c6-b7dd911435c9/Projects/rust/manga-vault/apps/http/gql/src/queries/scraping.rs
FN:154,_RNCNCNvMNtNtCs1uU1prdvDfE_7gql_api7queries8scrapingNtB6_13ScrapingQuery11get_scraper00Ba_
FN:163,_RNCNCNvMNtNtCs1uU1prdvDfE_7gql_api7queries8scrapingNtB6_13ScrapingQuery14process_mangas00Ba_
FN:172,_RNCNCNvMNtNtCs1uU1prdvDfE_7gql_api7queries8scrapingNtB6_13ScrapingQuery14process_mangas0s_0Ba_
FN:85,_RNCNCNvMs0_NtNtCs1uU1prdvDfE_7gql_api7queries8scrapingNtB9_13ScrapingQuery13scrape_latest0s0_0Bd_
FN:74,_RNCNCNvMs0_NtNtCs1uU1prdvDfE_7gql_api7queries8scrapingNtB9_13ScrapingQuery13scrape_latest0s_0Bd_
FN:122,_RNCNCNvMs0_NtNtCs1uU1prdvDfE_7gql_api7queries8scrapingNtB9_13ScrapingQuery15scrape_trending0s0_0Bd_
FN:111,_RNCNCNvMs0_NtNtCs1uU1prdvDfE_7gql_api7queries8scrapingNtB9_13ScrapingQuery15scrape_trending0s_0Bd_
FN:48,_RNCNCNvMs0_NtNtCs1uU1prdvDfE_7gql_api7queries8scrapingNtB9_13ScrapingQuery6search0s0_0Bd_
FN:37,_RNCNCNvMs0_NtNtCs1uU1prdvDfE_7gql_api7queries8scrapingNtB9_13ScrapingQuery6search0s_0Bd_
FN:150,_RNCNvMNtNtCs1uU1prdvDfE_7gql_api7queries8scrapingNtB4_13ScrapingQuery11get_scraper0B8_
FN:162,_RNCNvMNtNtCs1uU1prdvDfE_7gql_api7queries8scrapingNtB4_13ScrapingQuery14process_mangas0B8_
FN:58,_RNCNvMs0_NtNtCs1uU1prdvDfE_7gql_api7queries8scrapingNtB7_13ScrapingQuery13scrape_latest0Bb_
FN:95,_RNCNvMs0_NtNtCs1uU1prdvDfE_7gql_api7queries8scrapingNtB7_13ScrapingQuery15scrape_trending0Bb_
FN:17,_RNCNvMs0_NtNtCs1uU1prdvDfE_7gql_api7queries8scrapingNtB7_13ScrapingQuery6search0Bb_
FN:142,_RNCNvMs0_NtNtCs1uU1prdvDfE_7gql_api7queries8scrapingNtB7_13ScrapingQuery7scraper0Bb_
FN:132,_RNCNvMs0_NtNtCs1uU1prdvDfE_7gql_api7queries8scrapingNtB7_13ScrapingQuery8scrapers0Bb_
FN:150,_RNvMNtNtCs1uU1prdvDfE_7gql_api7queries8scrapingNtB2_13ScrapingQuery11get_scraper
FN:157,_RNvMNtNtCs1uU1prdvDfE_7gql_api7queries8scrapingNtB2_13ScrapingQuery14process_mangas
FN:58,_RNvMs0_NtNtCs1uU1prdvDfE_7gql_api7queries8scrapingNtB5_13ScrapingQuery13scrape_latest
FN:95,_RNvMs0_NtNtCs1uU1prdvDfE_7gql_api7queries8scrapingNtB5_13ScrapingQuery15scrape_trending
FN:17,_RNvMs0_NtNtCs1uU1prdvDfE_7gql_api7queries8scrapingNtB5_13ScrapingQuery6search
FN:142,_RNvMs0_NtNtCs1uU1prdvDfE_7gql_api7queries8scrapingNtB5_13ScrapingQuery7scraper
FN:132,_RNvMs0_NtNtCs1uU1prdvDfE_7gql_api7queries8scrapingNtB5_13ScrapingQuery8scrapers
FNDA:0,_RNCNCNvMNtNtCs1uU1prdvDfE_7gql_api7queries8scrapingNtB6_13ScrapingQuery11get_scraper00Ba_
FNDA:0,_RNCNCNvMNtNtCs1uU1prdvDfE_7gql_api7queries8scrapingNtB6_13ScrapingQuery14process_mangas00Ba_
FNDA:0,_RNCNCNvMNtNtCs1uU1prdvDfE_7gql_api7queries8scrapingNtB6_13ScrapingQuery14process_mangas0s_0Ba_
FNDA:0,_RNCNCNvMs0_NtNtCs1uU1prdvDfE_7gql_api7queries8scrapingNtB9_13ScrapingQuery13scrape_latest0s0_0Bd_
FNDA:0,_RNCNCNvMs0_NtNtCs1uU1prdvDfE_7gql_api7queries8scrapingNtB9_13ScrapingQuery13scrape_latest0s_0Bd_
FNDA:0,_RNCNCNvMs0_NtNtCs1uU1prdvDfE_7gql_api7queries8scrapingNtB9_13ScrapingQuery15scrape_trending0s0_0Bd_
FNDA:0,_RNCNCNvMs0_NtNtCs1uU1prdvDfE_7gql_api7queries8scrapingNtB9_13ScrapingQuery15scrape_trending0s_0Bd_
FNDA:0,_RNCNCNvMs0_NtNtCs1uU1prdvDfE_7gql_api7queries8scrapingNtB9_13ScrapingQuery6search0s0_0Bd_
FNDA:0,_RNCNCNvMs0_NtNtCs1uU1prdvDfE_7gql_api7queries8scrapingNtB9_13ScrapingQuery6search0s_0Bd_
FNDA:0,_RNCNvMNtNtCs1uU1prdvDfE_7gql_api7queries8scrapingNtB4_13ScrapingQuery11get_scraper0B8_
FNDA:0,_RNCNvMNtNtCs1uU1prdvDfE_7gql_api7queries8scrapingNtB4_13ScrapingQuery14process_mangas0B8_
FNDA:0,_RNCNvMs0_NtNtCs1uU1prdvDfE_7gql_api7queries8scrapingNtB7_13ScrapingQuery13scrape_latest0Bb_
FNDA:0,_RNCNvMs0_NtNtCs1uU1prdvDfE_7gql_api7queries8scrapingNtB7_13ScrapingQuery15scrape_trending0Bb_
FNDA:0,_RNCNvMs0_NtNtCs1uU1prdvDfE_7gql_api7queries8scrapingNtB7_13ScrapingQuery6search0Bb_
FNDA:0,_RNCNvMs0_NtNtCs1uU1prdvDfE_7gql_api7queries8scrapingNtB7_13ScrapingQuery7scraper0Bb_
FNDA:0,_RNCNvMs0_NtNtCs1uU1prdvDfE_7gql_api7queries8scrapingNtB7_13ScrapingQuery8scrapers0Bb_
FNDA:0,_RNvMNtNtCs1uU1prdvDfE_7gql_api7queries8scrapingNtB2_13ScrapingQuery11get_scraper
FNDA:0,_RNvMNtNtCs1uU1prdvDfE_7gql_api7queries8scrapingNtB2_13ScrapingQuery14process_mangas
FNDA:0,_RNvMs0_NtNtCs1uU1prdvDfE_7gql_api7queries8scrapingNtB5_13ScrapingQuery13scrape_latest
FNDA:0,_RNvMs0_NtNtCs1uU1prdvDfE_7gql_api7queries8scrapingNtB5_13ScrapingQuery15scrape_trending
FNDA:0,_RNvMs0_NtNtCs1uU1prdvDfE_7gql_api7queries8scrapingNtB5_13ScrapingQuery6search
FNDA:0,_RNvMs0_NtNtCs1uU1prdvDfE_7gql_api7queries8scrapingNtB5_13ScrapingQuery7scraper
FNDA:0,_RNvMs0_NtNtCs1uU1prdvDfE_7gql_api7queries8scrapingNtB5_13ScrapingQuery8scrapers
FNF:23
FNH:0
DA:17,0
DA:18,0
DA:20,0
DA:21,0
DA:22,0
DA:23,0
DA:24,0
DA:25,0
DA:26,0
DA:27,0
DA:29,0
DA:30,0
DA:31,0
DA:32,0
DA:34,0
DA:35,0
DA:36,0
DA:37,0
DA:38,0
DA:39,0
DA:42,0
DA:44,0
DA:45,0
DA:47,0
DA:48,0
DA:50,0
DA:51,0
DA:52,0
DA:53,0
DA:55,0
DA:56,0
DA:58,0
DA:59,0
DA:61,0
DA:62,0
DA:63,0
DA:64,0
DA:66,0
DA:67,0
DA:68,0
DA:69,0
DA:71,0
DA:72,0
DA:73,0
DA:74,0
DA:75,0
DA:76,0
DA:79,0
DA:81,0
DA:82,0
DA:84,0
DA:85,0
DA:87,0
DA:88,0
DA:89,0
DA:90,0
DA:92,0
DA:93,0
DA:95,0
DA:96,0
DA:98,0
DA:99,0
DA:100,0
DA:101,0
DA:103,0
DA:104,0
DA:105,0
DA:106,0
DA:108,0
DA:109,0
DA:110,0
DA:111,0
DA:112,0
DA:113,0
DA:116,0
DA:118,0
DA:119,0
DA:121,0
DA:122,0
DA:124,0
DA:125,0
DA:126,0
DA:127,0
DA:129,0
DA:130,0
DA:132,0
DA:133,0
DA:135,0
DA:136,0
DA:137,0
DA:138,0
DA:139,0
DA:140,0
DA:142,0
DA:143,0
DA:145,0
DA:146,0
DA:150,0
DA:151,0
DA:152,0
DA:153,0
DA:154,0
DA:155,0
DA:157,0
DA:158,0
DA:159,0
DA:160,0
DA:161,0
DA:162,0
DA:163,0
DA:165,0
DA:166,0
DA:167,0
DA:168,0
DA:169,0
DA:171,0
DA:172,0
DA:174,0
DA:175,0
DA:176,0
DA:178,0
DA:179,0
DA:180,0
DA:181,0
DA:182,0
DA:183,0
DA:184,0
DA:185,0
DA:186,0
DA:187,0
DA:188,0
DA:189,0
DA:190,0
DA:191,0
DA:192,0
DA:193,0
DA:194,0
DA:197,0
DA:198,0
DA:199,0
DA:200,0
DA:201,0
DA:203,0
DA:204,0
DA:207,0
DA:208,0
DA:209,0
DA:210,0
DA:212,0
DA:213,0
BRF:0
BRH:0
LF:166
LH:0
end_of_record
SF:/mnt/040b9fb6-50c4-4490-87c6-b7dd911435c9/Projects/rust/manga-vault/apps/http/gql/src/queries/user.rs
FN:33,_RNCNvMs_NtNtCs1uU1prdvDfE_7gql_api7queries4userNtB6_9UserQuery2me0Ba_
FN:27,_RNCNvMs_NtNtCs1uU1prdvDfE_7gql_api7queries4userNtB6_9UserQuery4user0Ba_
FN:14,_RNCNvMs_NtNtCs1uU1prdvDfE_7gql_api7queries4userNtB6_9UserQuery5users0Ba_
FN:33,_RNvMs_NtNtCs1uU1prdvDfE_7gql_api7queries4userNtB4_9UserQuery2me
FN:27,_RNvMs_NtNtCs1uU1prdvDfE_7gql_api7queries4userNtB4_9UserQuery4user
FN:14,_RNvMs_NtNtCs1uU1prdvDfE_7gql_api7queries4userNtB4_9UserQuery5users
FNDA:0,_RNCNvMs_NtNtCs1uU1prdvDfE_7gql_api7queries4userNtB6_9UserQuery2me0Ba_
FNDA:0,_RNCNvMs_NtNtCs1uU1prdvDfE_7gql_api7queries4userNtB6_9UserQuery4user0Ba_
FNDA:0,_RNCNvMs_NtNtCs1uU1prdvDfE_7gql_api7queries4userNtB6_9UserQuery5users0Ba_
FNDA:0,_RNvMs_NtNtCs1uU1prdvDfE_7gql_api7queries4userNtB4_9UserQuery2me
FNDA:0,_RNvMs_NtNtCs1uU1prdvDfE_7gql_api7queries4userNtB4_9UserQuery4user
FNDA:0,_RNvMs_NtNtCs1uU1prdvDfE_7gql_api7queries4userNtB4_9UserQuery5users
FNF:6
FNH:0
DA:14,0
DA:15,0
DA:16,0
DA:17,0
DA:19,0
DA:20,0
DA:21,0
DA:22,0
DA:24,0
DA:25,0
DA:27,0
DA:28,0
DA:29,0
DA:30,0
DA:31,0
DA:33,0
DA:34,0
DA:35,0
DA:36,0
BRF:0
BRH:0
LF:22
LH:0
end_of_record
SF:/mnt/040b9fb6-50c4-4490-87c6-b7dd911435c9/Projects/rust/manga-vault/apps/http/gql/src/serve_file/mod.rs
FN:26,_RNCNCNvNtCs1uU1prdvDfE_7gql_api10serve_file10serve_file00B7_
FN:27,_RNCNCNvNtCs1uU1prdvDfE_7gql_api10serve_file10serve_file0s_0B7_
FN:23,_RNCNvNtCs1uU1prdvDfE_7gql_api10serve_file10serve_file0B5_
FN:18,_RNvNtCs1uU1prdvDfE_7gql_api10serve_file10serve_file
FNDA:0,_RNCNCNvNtCs1uU1prdvDfE_7gql_api10serve_file10serve_file00B7_
FNDA:0,_RNCNCNvNtCs1uU1prdvDfE_7gql_api10serve_file10serve_file0s_0B7_
FNDA:0,_RNCNvNtCs1uU1prdvDfE_7gql_api10serve_file10serve_file0B5_
FNDA:0,_RNvNtCs1uU1prdvDfE_7gql_api10serve_file10serve_file
FNF:4
FNH:0
DA:18,0
DA:19,0
DA:20,0
DA:21,0
DA:22,0
DA:23,0
DA:24,0
DA:25,0
DA:26,0
DA:27,0
DA:29,0
DA:30,0
DA:31,0
DA:32,0
DA:33,0
DA:34,0
DA:35,0
DA:37,0
DA:40,0
DA:43,0
DA:45,0
DA:46,0
DA:47,0
DA:48,0
DA:50,0
DA:51,0
DA:52,0
DA:55,0
DA:56,0
DA:57,0
DA:59,0
DA:60,0
DA:62,0
DA:63,0
DA:65,0
DA:67,0
DA:68,0
DA:69,0
DA:72,0
DA:73,0
BRF:0
BRH:0
LF:43
LH:0
end_of_record
SF:/mnt/040b9fb6-50c4-4490-87c6-b7dd911435c9/Projects/rust/manga-vault/apps/http/version_check/src/lib.rs
FN:53,_RNCNCNvCshymtKcml7xc_13version_check18get_latest_release00B5_
FN:92,_RNCNCNvCshymtKcml7xc_13version_check18get_latest_release0s0_0B5_
FN:62,_RNCNCNvCshymtKcml7xc_13version_check18get_latest_release0s_0B5_
FN:38,_RNCNvCshymtKcml7xc_13version_check18get_latest_release0B3_
FN:38,_RNvCshymtKcml7xc_13version_check18get_latest_release
FN:105,_RNvCshymtKcml7xc_13version_check19is_update_available
FNDA:0,_RNCNCNvCshymtKcml7xc_13version_check18get_latest_release00B5_
FNDA:0,_RNCNCNvCshymtKcml7xc_13version_check18get_latest_release0s0_0B5_
FNDA:0,_RNCNCNvCshymtKcml7xc_13version_check18get_latest_release0s_0B5_
FNDA:0,_RNCNvCshymtKcml7xc_13version_check18get_latest_release0B3_
FNDA:0,_RNvCshymtKcml7xc_13version_check18get_latest_release
FNDA:0,_RNvCshymtKcml7xc_13version_check19is_update_available
FNF:6
FNH:0
DA:38,0
DA:39,0
DA:40,0
DA:42,0
DA:43,0
DA:44,0
DA:48,0
DA:49,0
DA:50,0
DA:51,0
DA:52,0
DA:53,0
DA:55,0
DA:56,0
DA:57,0
DA:59,0
DA:60,0
DA:61,0
DA:62,0
DA:64,0
DA:65,0
DA:66,0
DA:67,0
DA:70,0
DA:71,0
DA:72,0
DA:73,0
DA:74,0
DA:76,0
DA:78,0
DA:79,0
DA:80,0
DA:81,0
DA:82,0
DA:83,0
DA:84,0
DA:85,0
DA:86,0
DA:87,0
DA:88,0
DA:92,0
DA:94,0
DA:95,0
DA:96,0
DA:97,0
DA:98,0
DA:99,0
DA:101,0
DA:103,0
DA:105,0
DA:106,0
DA:107,0
DA:108,0
DA:109,0
BRF:0
BRH:0
LF:58
LH:0
end_of_record
SF:/mnt/040b9fb6-50c4-4490-87c6-b7dd911435c9/Projects/rust/manga-vault/apps/scheduler/queue/src/lib.rs
FN:258,_RNvCscgpBtnCsTMq_5queue17calculate_backoff
FN:226,_RNvMCscgpBtnCsTMq_5queueINtB2_9TaskQueuepE8max_sizeB2_
FN:131,_RNCNCNvMCscgpBtnCsTMq_5queueINtB6_9TaskQueueNtNtCsdlgNDpCKIbK_5alloc6string6StringE3news_0s_0B6_
FN:236,_RNCNvMCscgpBtnCsTMq_5queueINtB4_9TaskQueueNtNtCsdlgNDpCKIbK_5alloc6string6StringE10peek_top_k0B4_
FN:77,_RNCNvMCscgpBtnCsTMq_5queueINtB4_9TaskQueueNtNtCsdlgNDpCKIbK_5alloc6string6StringE3new0B4_
FN:110,_RNCNvMCscgpBtnCsTMq_5queueINtB4_9TaskQueueNtNtCsdlgNDpCKIbK_5alloc6string6StringE3news_0B4_
FN:188,_RNCNvMCscgpBtnCsTMq_5queueINtB4_9TaskQueueNtNtCsdlgNDpCKIbK_5alloc6string6StringE6insert0B4_
FN:243,_RNCNvMCscgpBtnCsTMq_5queueINtB4_9TaskQueueNtNtCsdlgNDpCKIbK_5alloc6string6StringE8shutdown0B4_
FN:236,_RNvMCscgpBtnCsTMq_5queueINtB2_9TaskQueueNtNtCsdlgNDpCKIbK_5alloc6string6StringE10peek_top_kB2_
FN:221,_RNvMCscgpBtnCsTMq_5queueINtB2_9TaskQueueNtNtCsdlgNDpCKIbK_5alloc6string6StringE3lenB2_
FN:53,_RNvMCscgpBtnCsTMq_5queueINtB2_9TaskQueueNtNtCsdlgNDpCKIbK_5alloc6string6StringE3newB2_
FN:188,_RNvMCscgpBtnCsTMq_5queueINtB2_9TaskQueueNtNtCsdlgNDpCKIbK_5alloc6string6StringE6insertB2_
FN:231,_RNvMCscgpBtnCsTMq_5queueINtB2_9TaskQueueNtNtCsdlgNDpCKIbK_5alloc6string6StringE8is_emptyB2_
FN:243,_RNvMCscgpBtnCsTMq_5queueINtB2_9TaskQueueNtNtCsdlgNDpCKIbK_5alloc6string6StringE8shutdownB2_
FNDA:5,_RNvCscgpBtnCsTMq_5queue17calculate_backoff
FNDA:0,_RNvMCscgpBtnCsTMq_5queueINtB2_9TaskQueuepE8max_sizeB2_
FNDA:6,_RNCNCNvMCscgpBtnCsTMq_5queueINtB6_9TaskQueueNtNtCsdlgNDpCKIbK_5alloc6string6StringE3news_0s_0B6_
FNDA:1,_RNCNvMCscgpBtnCsTMq_5queueINtB4_9TaskQueueNtNtCsdlgNDpCKIbK_5alloc6string6StringE10peek_top_k0B4_
FNDA:2,_RNCNvMCscgpBtnCsTMq_5queueINtB4_9TaskQueueNtNtCsdlgNDpCKIbK_5alloc6string6StringE3new0B4_
FNDA:2,_RNCNvMCscgpBtnCsTMq_5queueINtB4_9TaskQueueNtNtCsdlgNDpCKIbK_5alloc6string6StringE3news_0B4_
FNDA:14,_RNCNvMCscgpBtnCsTMq_5queueINtB4_9TaskQueueNtNtCsdlgNDpCKIbK_5alloc6string6StringE6insert0B4_
FNDA:1,_RNCNvMCscgpBtnCsTMq_5queueINtB4_9TaskQueueNtNtCsdlgNDpCKIbK_5alloc6string6StringE8shutdown0B4_
FNDA:1,_RNvMCscgpBtnCsTMq_5queueINtB2_9TaskQueueNtNtCsdlgNDpCKIbK_5alloc6string6StringE10peek_top_kB2_
FNDA:6,_RNvMCscgpBtnCsTMq_5queueINtB2_9TaskQueueNtNtCsdlgNDpCKIbK_5alloc6string6StringE3lenB2_
FNDA:7,_RNvMCscgpBtnCsTMq_5queueINtB2_9TaskQueueNtNtCsdlgNDpCKIbK_5alloc6string6StringE3newB2_
FNDA:14,_RNvMCscgpBtnCsTMq_5queueINtB2_9TaskQueueNtNtCsdlgNDpCKIbK_5alloc6string6StringE6insertB2_
FNDA:1,_RNvMCscgpBtnCsTMq_5queueINtB2_9TaskQueueNtNtCsdlgNDpCKIbK_5alloc6string6StringE8is_emptyB2_
FNDA:1,_RNvMCscgpBtnCsTMq_5queueINtB2_9TaskQueueNtNtCsdlgNDpCKIbK_5alloc6string6StringE8shutdownB2_
FNF:14
FNH:13
DA:53,7
DA:54,7
DA:55,7
DA:56,7
DA:57,7
DA:58,7
DA:59,7
DA:60,7
DA:61,7
DA:62,7
DA:63,7
DA:64,7
DA:65,7
DA:66,7
DA:67,7
DA:68,7
DA:69,7
DA:71,7
DA:72,7
DA:73,7
DA:74,7
DA:75,7
DA:77,7
DA:79,13
DA:80,0
DA:82,13
DA:85,13
DA:86,6
DA:87,6
DA:88,0
DA:89,6
DA:90,6
DA:93,7
DA:94,7
DA:95,7
DA:100,0
DA:101,0
DA:103,7
DA:104,7
DA:105,7
DA:106,7
DA:107,7
DA:108,7
DA:110,7
DA:111,2
DA:113,8
DA:114,8
DA:115,8
DA:116,6
DA:117,6
DA:118,6
DA:120,0
DA:121,0
DA:125,6
DA:126,6
DA:127,6
DA:128,6
DA:129,6
DA:131,6
DA:132,6
DA:133,6
DA:135,6
DA:137,2
DA:139,4
DA:140,4
DA:141,4
DA:142,4
DA:144,4
DA:145,4
DA:146,4
DA:148,4
DA:149,4
DA:150,4
DA:151,4
DA:152,4
DA:153,4
DA:154,0
DA:156,0
DA:159,6
DA:160,6
DA:162,0
DA:167,0
DA:168,0
DA:170,7
DA:171,7
DA:172,7
DA:173,7
DA:174,7
DA:175,7
DA:176,7
DA:177,7
DA:178,7
DA:179,7
DA:180,7
DA:181,7
DA:182,7
DA:183,7
DA:188,14
DA:189,14
DA:190,14
DA:191,14
DA:193,14
DA:194,11
DA:196,10
DA:197,10
DA:199,1
DA:202,3
DA:203,3
DA:205,3
DA:206,3
DA:209,0
DA:211,0
DA:214,0
DA:218,14
DA:221,6
DA:222,6
DA:223,6
DA:226,0
DA:227,0
DA:228,0
DA:231,1
DA:232,1
DA:233,1
DA:236,1
DA:237,1
DA:238,1
DA:243,1
DA:254,1
DA:258,5
DA:259,5
DA:260,5
DA:261,5
DA:262,5
DA:263,5
DA:264,5
BRF:0
BRH:0
LF:141
LH:124
end_of_record
SF:/mnt/040b9fb6-50c4-4490-87c6-b7dd911435c9/Projects/rust/manga-vault/apps/scheduler/queue/src/priority_queue_core.rs
FN:196,_RNCNCNCNvMNtCscgpBtnCsTMq_5queue19priority_queue_coreINtB8_17PriorityQueueCoreNtNtCsdlgNDpCKIbK_5alloc6string6StringE10peek_top_k000Ba_
FN:153,_RNCNCNCNvMNtCscgpBtnCsTMq_5queue19priority_queue_coreINtB8_17PriorityQueueCoreNtNtCsdlgNDpCKIbK_5alloc6string6StringE14pop_with_aging0s_00Ba_
FN:196,_RNCNCNvMNtCscgpBtnCsTMq_5queue19priority_queue_coreINtB6_17PriorityQueueCoreNtNtCsdlgNDpCKIbK_5alloc6string6StringE10peek_top_k00B8_
FN:150,_RNCNCNvMNtCscgpBtnCsTMq_5queue19priority_queue_coreINtB6_17PriorityQueueCoreNtNtCsdlgNDpCKIbK_5alloc6string6StringE14pop_with_aging00B8_
FN:163,_RNCNCNvMNtCscgpBtnCsTMq_5queue19priority_queue_coreINtB6_17PriorityQueueCoreNtNtCsdlgNDpCKIbK_5alloc6string6StringE14pop_with_aging0s0_0B8_
FN:167,_RNCNCNvMNtCscgpBtnCsTMq_5queue19priority_queue_coreINtB6_17PriorityQueueCoreNtNtCsdlgNDpCKIbK_5alloc6string6StringE14pop_with_aging0s1_0B8_
FN:151,_RNCNCNvMNtCscgpBtnCsTMq_5queue19priority_queue_coreINtB6_17PriorityQueueCoreNtNtCsdlgNDpCKIbK_5alloc6string6StringE14pop_with_aging0s_0B8_
FN:61,_RNCNCNvMNtCscgpBtnCsTMq_5queue19priority_queue_coreINtB6_17PriorityQueueCoreNtNtCsdlgNDpCKIbK_5alloc6string6StringE6insert00B8_
FN:88,_RNCNCNvMNtCscgpBtnCsTMq_5queue19priority_queue_coreINtB6_17PriorityQueueCoreNtNtCsdlgNDpCKIbK_5alloc6string6StringE6insert0s0_0B8_
FN:193,_RNCNvMNtCscgpBtnCsTMq_5queue19priority_queue_coreINtB4_17PriorityQueueCoreNtNtCsdlgNDpCKIbK_5alloc6string6StringE10peek_top_k0B6_
FN:140,_RNCNvMNtCscgpBtnCsTMq_5queue19priority_queue_coreINtB4_17PriorityQueueCoreNtNtCsdlgNDpCKIbK_5alloc6string6StringE14pop_with_aging0B6_
FN:111,_RNCNvMNtCscgpBtnCsTMq_5queue19priority_queue_coreINtB4_17PriorityQueueCoreNtNtCsdlgNDpCKIbK_5alloc6string6StringE3pop0B6_
FN:56,_RNCNvMNtCscgpBtnCsTMq_5queue19priority_queue_coreINtB4_17PriorityQueueCoreNtNtCsdlgNDpCKIbK_5alloc6string6StringE6insert0B6_
FN:193,_RNvMNtCscgpBtnCsTMq_5queue19priority_queue_coreINtB2_17PriorityQueueCoreNtNtCsdlgNDpCKIbK_5alloc6string6StringE10peek_top_kB4_
FN:140,_RNvMNtCscgpBtnCsTMq_5queue19priority_queue_coreINtB2_17PriorityQueueCoreNtNtCsdlgNDpCKIbK_5alloc6string6StringE14pop_with_agingB4_
FN:177,_RNvMNtCscgpBtnCsTMq_5queue19priority_queue_coreINtB2_17PriorityQueueCoreNtNtCsdlgNDpCKIbK_5alloc6string6StringE3lenB4_
FN:40,_RNvMNtCscgpBtnCsTMq_5queue19priority_queue_coreINtB2_17PriorityQueueCoreNtNtCsdlgNDpCKIbK_5alloc6string6StringE3newB4_
FN:111,_RNvMNtCscgpBtnCsTMq_5queue19priority_queue_coreINtB2_17PriorityQueueCoreNtNtCsdlgNDpCKIbK_5alloc6string6StringE3popB4_
FN:56,_RNvMNtCscgpBtnCsTMq_5queue19priority_queue_coreINtB2_17PriorityQueueCoreNtNtCsdlgNDpCKIbK_5alloc6string6StringE6insertB4_
FN:184,_RNvMNtCscgpBtnCsTMq_5queue19priority_queue_coreINtB2_17PriorityQueueCoreNtNtCsdlgNDpCKIbK_5alloc6string6StringE8is_emptyB4_
FNDA:5,_RNCNCNCNvMNtCscgpBtnCsTMq_5queue19priority_queue_coreINtB8_17PriorityQueueCoreNtNtCsdlgNDpCKIbK_5alloc6string6StringE10peek_top_k000Ba_
FNDA:4,_RNCNCNCNvMNtCscgpBtnCsTMq_5queue19priority_queue_coreINtB8_17PriorityQueueCoreNtNtCsdlgNDpCKIbK_5alloc6string6StringE14pop_with_aging0s_00Ba_
FNDA:5,_RNCNCNvMNtCscgpBtnCsTMq_5queue19priority_queue_coreINtB6_17PriorityQueueCoreNtNtCsdlgNDpCKIbK_5alloc6string6StringE10peek_top_k00B8_
FNDA:4,_RNCNCNvMNtCscgpBtnCsTMq_5queue19priority_queue_coreINtB6_17PriorityQueueCoreNtNtCsdlgNDpCKIbK_5alloc6string6StringE14pop_with_aging00B8_
FNDA:4,_RNCNCNvMNtCscgpBtnCsTMq_5queue19priority_queue_coreINtB6_17PriorityQueueCoreNtNtCsdlgNDpCKIbK_5alloc6string6StringE14pop_with_aging0s0_0B8_
FNDA:4,_RNCNCNvMNtCscgpBtnCsTMq_5queue19priority_queue_coreINtB6_17PriorityQueueCoreNtNtCsdlgNDpCKIbK_5alloc6string6StringE14pop_with_aging0s1_0B8_
FNDA:4,_RNCNCNvMNtCscgpBtnCsTMq_5queue19priority_queue_coreINtB6_17PriorityQueueCoreNtNtCsdlgNDpCKIbK_5alloc6string6StringE14pop_with_aging0s_0B8_
FNDA:1,_RNCNCNvMNtCscgpBtnCsTMq_5queue19priority_queue_coreINtB6_17PriorityQueueCoreNtNtCsdlgNDpCKIbK_5alloc6string6StringE6insert00B8_
FNDA:2,_RNCNCNvMNtCscgpBtnCsTMq_5queue19priority_queue_coreINtB6_17PriorityQueueCoreNtNtCsdlgNDpCKIbK_5alloc6string6StringE6insert0s0_0B8_
FNDA:3,_RNCNvMNtCscgpBtnCsTMq_5queue19priority_queue_coreINtB4_17PriorityQueueCoreNtNtCsdlgNDpCKIbK_5alloc6string6StringE10peek_top_k0B6_
FNDA:2,_RNCNvMNtCscgpBtnCsTMq_5queue19priority_queue_coreINtB4_17PriorityQueueCoreNtNtCsdlgNDpCKIbK_5alloc6string6StringE14pop_with_aging0B6_
FNDA:15,_RNCNvMNtCscgpBtnCsTMq_5queue19priority_queue_coreINtB4_17PriorityQueueCoreNtNtCsdlgNDpCKIbK_5alloc6string6StringE3pop0B6_
FNDA:35,_RNCNvMNtCscgpBtnCsTMq_5queue19priority_queue_coreINtB4_17PriorityQueueCoreNtNtCsdlgNDpCKIbK_5alloc6string6StringE6insert0B6_
FNDA:3,_RNvMNtCscgpBtnCsTMq_5queue19priority_queue_coreINtB2_17PriorityQueueCoreNtNtCsdlgNDpCKIbK_5alloc6string6StringE10peek_top_kB4_
FNDA:2,_RNvMNtCscgpBtnCsTMq_5queue19priority_queue_coreINtB2_17PriorityQueueCoreNtNtCsdlgNDpCKIbK_5alloc6string6StringE14pop_with_agingB4_
FNDA:17,_RNvMNtCscgpBtnCsTMq_5queue19priority_queue_coreINtB2_17PriorityQueueCoreNtNtCsdlgNDpCKIbK_5alloc6string6StringE3lenB4_
FNDA:14,_RNvMNtCscgpBtnCsTMq_5queue19priority_queue_coreINtB2_17PriorityQueueCoreNtNtCsdlgNDpCKIbK_5alloc6string6StringE3newB4_
FNDA:15,_RNvMNtCscgpBtnCsTMq_5queue19priority_queue_coreINtB2_17PriorityQueueCoreNtNtCsdlgNDpCKIbK_5alloc6string6StringE3popB4_
FNDA:35,_RNvMNtCscgpBtnCsTMq_5queue19priority_queue_coreINtB2_17PriorityQueueCoreNtNtCsdlgNDpCKIbK_5alloc6string6StringE6insertB4_
FNDA:4,_RNvMNtCscgpBtnCsTMq_5queue19priority_queue_coreINtB2_17PriorityQueueCoreNtNtCsdlgNDpCKIbK_5alloc6string6StringE8is_emptyB4_
FNF:20
FNH:20
DA:40,14
DA:41,14
DA:42,14
DA:43,14
DA:44,14
DA:45,14
DA:46,14
DA:47,14
DA:48,14
DA:56,35
DA:57,35
DA:58,1
DA:59,1
DA:60,1
DA:61,1
DA:62,0
DA:64,1
DA:66,1
DA:67,1
DA:68,1
DA:69,1
DA:70,1
DA:71,1
DA:72,1
DA:73,1
DA:74,1
DA:75,1
DA:76,0
DA:77,0
DA:78,34
DA:80,34
DA:81,3
DA:82,3
DA:83,3
DA:84,3
DA:85,2
DA:86,1
DA:87,1
DA:88,2
DA:89,1
DA:90,1
DA:91,0
DA:92,31
DA:94,32
DA:95,32
DA:96,32
DA:97,32
DA:98,32
DA:99,32
DA:100,32
DA:101,32
DA:102,32
DA:103,32
DA:105,32
DA:106,35
DA:111,15
DA:112,15
DA:113,15
DA:115,15
DA:116,11
DA:117,3
DA:118,8
DA:120,8
DA:121,8
DA:122,8
DA:124,8
DA:125,8
DA:126,0
DA:127,0
DA:129,4
DA:130,15
DA:140,2
DA:141,2
DA:142,2
DA:143,2
DA:144,0
DA:147,2
DA:148,2
DA:149,2
DA:150,4
DA:151,4
DA:152,4
DA:153,4
DA:154,4
DA:155,4
DA:156,4
DA:157,4
DA:158,4
DA:159,4
DA:160,2
DA:163,4
DA:165,2
DA:166,2
DA:167,4
DA:168,2
DA:169,2
DA:170,0
DA:171,0
DA:172,0
DA:173,0
DA:174,2
DA:177,17
DA:178,17
DA:179,17
DA:184,4
DA:185,4
DA:186,4
DA:193,3
DA:194,3
DA:195,3
DA:196,5
DA:197,3
DA:198,3
DA:199,3
BRF:0
BRH:0
LF:127
LH:116
end_of_record
SF:/mnt/040b9fb6-50c4-4490-87c6-b7dd911435c9/Projects/rust/manga-vault/apps/scheduler/queue/src/queue_item.rs
FN:22,_RNvMNtCscgpBtnCsTMq_5queue10queue_itemINtB2_9QueueItemNtNtCsdlgNDpCKIbK_5alloc6string6StringE3newB4_
FNDA:31,_RNvMNtCscgpBtnCsTMq_5queue10queue_itemINtB2_9QueueItemNtNtCsdlgNDpCKIbK_5alloc6string6StringE3newB4_
FNF:1
FNH:1
DA:22,31
DA:23,31
DA:24,31
DA:25,31
DA:26,31
DA:27,31
DA:28,31
DA:29,31
DA:30,31
DA:31,31
DA:32,31
DA:33,31
DA:34,31
BRF:0
BRH:0
LF:13
LH:13
end_of_record
SF:/mnt/040b9fb6-50c4-4490-87c6-b7dd911435c9/Projects/rust/manga-vault/apps/scheduler/src/lib.rs
FN:139,_RNCNCNCNCNCNCNvMs_CseGesla3HxnW_9schedulerNtBg_20MangaUpdateScheduler3new000s1_000Bg_
FN:139,_RNCNCNCNCNCNvMs_CseGesla3HxnW_9schedulerNtBe_20MangaUpdateScheduler3new000s1_00Be_
FN:113,_RNCNCNCNCNvMs_CseGesla3HxnW_9schedulerNtBc_20MangaUpdateScheduler3new0000Bc_
FN:130,_RNCNCNCNCNvMs_CseGesla3HxnW_9schedulerNtBc_20MangaUpdateScheduler3new000s0_0Bc_
FN:136,_RNCNCNCNCNvMs_CseGesla3HxnW_9schedulerNtBc_20MangaUpdateScheduler3new000s1_0Bc_
FN:146,_RNCNCNCNCNvMs_CseGesla3HxnW_9schedulerNtBc_20MangaUpdateScheduler3new000s2_0Bc_
FN:150,_RNCNCNCNCNvMs_CseGesla3HxnW_9schedulerNtBc_20MangaUpdateScheduler3new000s3_0Bc_
FN:178,_RNCNCNCNCNvMs_CseGesla3HxnW_9schedulerNtBc_20MangaUpdateScheduler3new000s4_0Bc_
FN:214,_RNCNCNCNCNvMs_CseGesla3HxnW_9schedulerNtBc_20MangaUpdateScheduler3new000s5_0Bc_
FN:225,_RNCNCNCNCNvMs_CseGesla3HxnW_9schedulerNtBc_20MangaUpdateScheduler3new000s6_0Bc_
FN:228,_RNCNCNCNCNvMs_CseGesla3HxnW_9schedulerNtBc_20MangaUpdateScheduler3new000s7_0Bc_
FN:236,_RNCNCNCNCNvMs_CseGesla3HxnW_9schedulerNtBc_20MangaUpdateScheduler3new000s8_0Bc_
FN:114,_RNCNCNCNCNvMs_CseGesla3HxnW_9schedulerNtBc_20MangaUpdateScheduler3new000s_0Bc_
FN:260,_RNCNCNCNCNvMs_CseGesla3HxnW_9schedulerNtBc_20MangaUpdateScheduler3new000sa_0Bc_
FN:109,_RNCNCNCNvMs_CseGesla3HxnW_9schedulerNtBa_20MangaUpdateScheduler3new000Ba_
FN:403,_RNCNCNvCseGesla3HxnW_9scheduler14host_from_base00B5_
FN:379,_RNCNCNvMs_CseGesla3HxnW_9schedulerNtB8_20MangaUpdateScheduler20schedule_manga_batch00B8_
FN:330,_RNCNCNvMs_CseGesla3HxnW_9schedulerNtB8_20MangaUpdateScheduler21fetch_critical_mangas00B8_
FN:344,_RNCNCNvMs_CseGesla3HxnW_9schedulerNtB8_20MangaUpdateScheduler22fetch_remaining_mangas00B8_
FN:91,_RNCNCNvMs_CseGesla3HxnW_9schedulerNtB8_20MangaUpdateScheduler3new00B8_
FN:403,_RNCNvCseGesla3HxnW_9scheduler14host_from_base0B3_
FN:407,_RNCNvCseGesla3HxnW_9scheduler26replace_host_preserve_path0B3_
FN:413,_RNCNvCseGesla3HxnW_9scheduler26replace_host_preserve_paths0_0B3_
FN:417,_RNCNvCseGesla3HxnW_9scheduler26replace_host_preserve_paths1_0B3_
FN:412,_RNCNvCseGesla3HxnW_9scheduler26replace_host_preserve_paths_0B3_
FN:52,_RNCNvMCseGesla3HxnW_9schedulerNtB4_22ScraperCooldownTracker14needs_cooldown0B4_
FN:304,_RNCNvMs_CseGesla3HxnW_9schedulerNtB6_20MangaUpdateScheduler16schedule_updates0B6_
FN:351,_RNCNvMs_CseGesla3HxnW_9schedulerNtB6_20MangaUpdateScheduler20schedule_manga_batch0B6_
FN:321,_RNCNvMs_CseGesla3HxnW_9schedulerNtB6_20MangaUpdateScheduler21fetch_critical_mangas0B6_
FN:337,_RNCNvMs_CseGesla3HxnW_9schedulerNtB6_20MangaUpdateScheduler22fetch_remaining_mangas0B6_
FN:85,_RNCNvMs_CseGesla3HxnW_9schedulerNtB6_20MangaUpdateScheduler3new0B6_
FN:294,_RNCNvMs_CseGesla3HxnW_9schedulerNtB6_20MangaUpdateScheduler5start0B6_
FN:402,_RNvCseGesla3HxnW_9scheduler14host_from_base
FN:406,_RNvCseGesla3HxnW_9scheduler26replace_host_preserve_path
FN:49,_RNvMCseGesla3HxnW_9schedulerNtB2_22ScraperCooldownTracker14needs_cooldown
FN:42,_RNvMCseGesla3HxnW_9schedulerNtB2_22ScraperCooldownTracker3new
FN:56,_RNvMCseGesla3HxnW_9schedulerNtB2_22ScraperCooldownTracker9mark_used
FN:304,_RNvMs_CseGesla3HxnW_9schedulerNtB4_20MangaUpdateScheduler16schedule_updates
FN:384,_RNvMs_CseGesla3HxnW_9schedulerNtB4_20MangaUpdateScheduler18calculate_priority
FN:351,_RNvMs_CseGesla3HxnW_9schedulerNtB4_20MangaUpdateScheduler20schedule_manga_batch
FN:321,_RNvMs_CseGesla3HxnW_9schedulerNtB4_20MangaUpdateScheduler21fetch_critical_mangas
FN:337,_RNvMs_CseGesla3HxnW_9schedulerNtB4_20MangaUpdateScheduler22fetch_remaining_mangas
FN:69,_RNvMs_CseGesla3HxnW_9schedulerNtB4_20MangaUpdateScheduler3new
FN:294,_RNvMs_CseGesla3HxnW_9schedulerNtB4_20MangaUpdateScheduler5start
FNDA:0,_RNCNCNCNCNCNCNvMs_CseGesla3HxnW_9schedulerNtBg_20MangaUpdateScheduler3new000s1_000Bg_
FNDA:0,_RNCNCNCNCNCNvMs_CseGesla3HxnW_9schedulerNtBe_20MangaUpdateScheduler3new000s1_00Be_
FNDA:0,_RNCNCNCNCNvMs_CseGesla3HxnW_9schedulerNtBc_20MangaUpdateScheduler3new0000Bc_
FNDA:0,_RNCNCNCNCNvMs_CseGesla3HxnW_9schedulerNtBc_20MangaUpdateScheduler3new000s0_0Bc_
FNDA:0,_RNCNCNCNCNvMs_CseGesla3HxnW_9schedulerNtBc_20MangaUpdateScheduler3new000s1_0Bc_
FNDA:0,_RNCNCNCNCNvMs_CseGesla3HxnW_9schedulerNtBc_20MangaUpdateScheduler3new000s2_0Bc_
FNDA:0,_RNCNCNCNCNvMs_CseGesla3HxnW_9schedulerNtBc_20MangaUpdateScheduler3new000s3_0Bc_
FNDA:0,_RNCNCNCNCNvMs_CseGesla3HxnW_9schedulerNtBc_20MangaUpdateScheduler3new000s4_0Bc_
FNDA:0,_RNCNCNCNCNvMs_CseGesla3HxnW_9schedulerNtBc_20MangaUpdateScheduler3new000s5_0Bc_
FNDA:0,_RNCNCNCNCNvMs_CseGesla3HxnW_9schedulerNtBc_20MangaUpdateScheduler3new000s6_0Bc_
FNDA:0,_RNCNCNCNCNvMs_CseGesla3HxnW_9schedulerNtBc_20MangaUpdateScheduler3new000s7_0Bc_
FNDA:0,_RNCNCNCNCNvMs_CseGesla3HxnW_9schedulerNtBc_20MangaUpdateScheduler3new000s8_0Bc_
FNDA:0,_RNCNCNCNCNvMs_CseGesla3HxnW_9schedulerNtBc_20MangaUpdateScheduler3new000s_0Bc_
FNDA:0,_RNCNCNCNCNvMs_CseGesla3HxnW_9schedulerNtBc_20MangaUpdateScheduler3new000sa_0Bc_
FNDA:0,_RNCNCNCNvMs_CseGesla3HxnW_9schedulerNtBa_20MangaUpdateScheduler3new000Ba_
FNDA:0,_RNCNCNvCseGesla3HxnW_9scheduler14host_from_base00B5_
FNDA:0,_RNCNCNvMs_CseGesla3HxnW_9schedulerNtB8_20MangaUpdateScheduler20schedule_manga_batch00B8_
FNDA:0,_RNCNCNvMs_CseGesla3HxnW_9schedulerNtB8_20MangaUpdateScheduler21fetch_critical_mangas00B8_
FNDA:0,_RNCNCNvMs_CseGesla3HxnW_9schedulerNtB8_20MangaUpdateScheduler22fetch_remaining_mangas00B8_
FNDA:0,_RNCNCNvMs_CseGesla3HxnW_9schedulerNtB8_20MangaUpdateScheduler3new00B8_
FNDA:0,_RNCNvCseGesla3HxnW_9scheduler14host_from_base0B3_
FNDA:0,_RNCNvCseGesla3HxnW_9scheduler26replace_host_preserve_path0B3_
FNDA:0,_RNCNvCseGesla3HxnW_9scheduler26replace_host_preserve_paths0_0B3_
FNDA:0,_RNCNvCseGesla3HxnW_9scheduler26replace_host_preserve_paths1_0B3_
FNDA:0,_RNCNvCseGesla3HxnW_9scheduler26replace_host_preserve_paths_0B3_
FNDA:0,_RNCNvMCseGesla3HxnW_9schedulerNtB4_22ScraperCooldownTracker14needs_cooldown0B4_
FNDA:0,_RNCNvMs_CseGesla3HxnW_9schedulerNtB6_20MangaUpdateScheduler16schedule_updates0B6_
FNDA:0,_RNCNvMs_CseGesla3HxnW_9schedulerNtB6_20MangaUpdateScheduler20schedule_manga_batch0B6_
FNDA:0,_RNCNvMs_CseGesla3HxnW_9schedulerNtB6_20MangaUpdateScheduler21fetch_critical_mangas0B6_
FNDA:0,_RNCNvMs_CseGesla3HxnW_9schedulerNtB6_20MangaUpdateScheduler22fetch_remaining_mangas0B6_
FNDA:0,_RNCNvMs_CseGesla3HxnW_9schedulerNtB6_20MangaUpdateScheduler3new0B6_
FNDA:0,_RNCNvMs_CseGesla3HxnW_9schedulerNtB6_20MangaUpdateScheduler5start0B6_
FNDA:0,_RNvCseGesla3HxnW_9scheduler14host_from_base
FNDA:0,_RNvCseGesla3HxnW_9scheduler26replace_host_preserve_path
FNDA:0,_RNvMCseGesla3HxnW_9schedulerNtB2_22ScraperCooldownTracker14needs_cooldown
FNDA:0,_RNvMCseGesla3HxnW_9schedulerNtB2_22ScraperCooldownTracker3new
FNDA:0,_RNvMCseGesla3HxnW_9schedulerNtB2_22ScraperCooldownTracker9mark_used
FNDA:0,_RNvMs_CseGesla3HxnW_9schedulerNtB4_20MangaUpdateScheduler16schedule_updates
FNDA:0,_RNvMs_CseGesla3HxnW_9schedulerNtB4_20MangaUpdateScheduler18calculate_priority
FNDA:0,_RNvMs_CseGesla3HxnW_9schedulerNtB4_20MangaUpdateScheduler20schedule_manga_batch
FNDA:0,_RNvMs_CseGesla3HxnW_9schedulerNtB4_20MangaUpdateScheduler21fetch_critical_mangas
FNDA:0,_RNvMs_CseGesla3HxnW_9schedulerNtB4_20MangaUpdateScheduler22fetch_remaining_mangas
FNDA:0,_RNvMs_CseGesla3HxnW_9schedulerNtB4_20MangaUpdateScheduler3new
FNDA:0,_RNvMs_CseGesla3HxnW_9schedulerNtB4_20MangaUpdateScheduler5start
FNF:44
FNH:0
DA:42,0
DA:43,0
DA:44,0
DA:45,0
DA:46,0
DA:47,0
DA:49,0
DA:50,0
DA:51,0
DA:52,0
DA:53,0
DA:54,0
DA:56,0
DA:57,0
DA:58,0
DA:69,0
DA:70,0
DA:71,0
DA:72,0
DA:73,0
DA:74,0
DA:75,0
DA:76,0
DA:77,0
DA:79,0
DA:80,0
DA:81,0
DA:82,0
DA:83,0
DA:85,0
DA:86,0
DA:87,0
DA:88,0
DA:89,0
DA:91,0
DA:93,0
DA:94,0
DA:95,0
DA:96,0
DA:97,0
DA:100,0
DA:101,0
DA:102,0
DA:103,0
DA:104,0
DA:106,0
DA:107,0
DA:109,0
DA:110,0
DA:111,0
DA:112,0
DA:113,0
DA:114,0
DA:116,0
DA:118,0
DA:119,0
DA:120,0
DA:121,0
DA:122,0
DA:124,0
DA:126,0
DA:127,0
DA:128,0
DA:129,0
DA:130,0
DA:131,0
DA:132,0
DA:134,0
DA:135,0
DA:136,0
DA:137,0
DA:138,0
DA:139,0
DA:140,0
DA:141,0
DA:143,0
DA:144,0
DA:145,0
DA:146,0
DA:147,0
DA:148,0
DA:150,0
DA:151,0
DA:152,0
DA:157,0
DA:160,0
DA:161,0
DA:162,0
DA:163,0
DA:164,0
DA:165,0
DA:170,0
DA:171,0
DA:172,0
DA:173,0
DA:174,0
DA:175,0
DA:176,0
DA:177,0
DA:178,0
DA:179,0
DA:180,0
DA:181,0
DA:182,0
DA:183,0
DA:184,0
DA:185,0
DA:186,0
DA:187,0
DA:191,0
DA:192,0
DA:194,0
DA:195,0
DA:198,0
DA:199,0
DA:201,0
DA:203,0
DA:205,0
DA:206,0
DA:207,0
DA:209,0
DA:210,0
DA:211,0
DA:212,0
DA:213,0
DA:214,0
DA:215,0
DA:216,0
DA:217,0
DA:218,0
DA:219,0
DA:221,0
DA:222,0
DA:223,0
DA:225,0
DA:227,0
DA:228,0
DA:230,0
DA:231,0
DA:232,0
DA:233,0
DA:234,0
DA:235,0
DA:236,0
DA:238,0
DA:239,0
DA:241,0
DA:242,0
DA:243,0
DA:244,0
DA:245,0
DA:246,0
DA:247,0
DA:248,0
DA:249,0
DA:250,0
DA:251,0
DA:252,0
DA:253,0
DA:256,0
DA:257,0
DA:258,0
DA:259,0
DA:260,0
DA:261,0
DA:263,0
DA:265,0
DA:267,0
DA:268,0
DA:269,0
DA:270,0
DA:271,0
DA:272,0
DA:275,0
DA:276,0
DA:280,0
DA:281,0
DA:282,0
DA:285,0
DA:286,0
DA:287,0
DA:288,0
DA:289,0
DA:290,0
DA:291,0
DA:292,0
DA:294,0
DA:296,0
DA:297,0
DA:298,0
DA:300,0
DA:304,0
DA:305,0
DA:306,0
DA:308,0
DA:310,0
DA:312,0
DA:313,0
DA:314,0
DA:315,0
DA:317,0
DA:318,0
DA:319,0
DA:321,0
DA:322,0
DA:323,0
DA:324,0
DA:325,0
DA:326,0
DA:327,0
DA:328,0
DA:329,0
DA:330,0
DA:331,0
DA:332,0
DA:333,0
DA:334,0
DA:335,0
DA:337,0
DA:338,0
DA:339,0
DA:340,0
DA:341,0
DA:342,0
DA:343,0
DA:344,0
DA:345,0
DA:346,0
DA:347,0
DA:348,0
DA:349,0
DA:351,0
DA:352,0
DA:353,0
DA:355,0
DA:356,0
DA:357,0
DA:358,0
DA:359,0
DA:360,0
DA:362,0
DA:363,0
DA:364,0
DA:365,0
DA:366,0
DA:367,0
DA:368,0
DA:369,0
DA:370,0
DA:372,0
DA:373,0
DA:374,0
DA:375,0
DA:376,0
DA:379,0
DA:381,0
DA:382,0
DA:384,0
DA:385,0
DA:386,0
DA:387,0
DA:388,0
DA:389,0
DA:390,0
DA:391,0
DA:392,0
DA:395,0
DA:396,0
DA:398,0
DA:399,0
DA:402,0
DA:403,0
DA:404,0
DA:406,0
DA:407,0
DA:409,0
DA:410,0
DA:411,0
DA:412,0
DA:413,0
DA:414,0
DA:416,0
DA:417,0
DA:418,0
DA:421,0
DA:422,0
BRF:0
BRH:0
LF:317
LH:0
end_of_record
SF:/mnt/040b9fb6-50c4-4490-87c6-b7dd911435c9/Projects/rust/manga-vault/apps/scheduler/src/main.rs
FN:10,_RNCNvCs53WPZADQIwH_21manga_vault_scheduler4main0B3_
FN:10,_RNvCs53WPZADQIwH_21manga_vault_scheduler4main
FNDA:0,_RNCNvCs53WPZADQIwH_21manga_vault_scheduler4main0B3_
FNDA:0,_RNvCs53WPZADQIwH_21manga_vault_scheduler4main
FNF:2
FNH:0
DA:10,0
DA:11,0
DA:13,0
DA:15,0
DA:16,0
DA:17,0
DA:18,0
DA:19,0
DA:20,0
DA:21,0
DA:22,0
DA:23,0
DA:25,0
DA:27,0
DA:28,0
DA:29,0
DA:31,0
DA:32,0
DA:35,0
DA:37,0
DA:39,0
DA:40,0
BRF:0
BRH:0
LF:24
LH:0
end_of_record
SF:/mnt/040b9fb6-50c4-4490-87c6-b7dd911435c9/Projects/rust/manga-vault/apps/website/server/src/lib.rs
FN:120,_RNCNCNCNCNvCsjgCXKMWxvBQ_14website_server3run0000B9_
FN:116,_RNCNCNCNvCsjgCXKMWxvBQ_14website_server3run000B7_
FN:133,_RNCNCNCNvCsjgCXKMWxvBQ_14website_server3run0s_00B7_
FN:122,_RNCNCNvCsjgCXKMWxvBQ_14website_server3run00B5_
FN:131,_RNCNCNvCsjgCXKMWxvBQ_14website_server3run0s_0B5_
FN:52,_RNCNvCsjgCXKMWxvBQ_14website_server3run0B3_
FN:11,_RNvCsjgCXKMWxvBQ_14website_server22current_exe_parent_dir
FN:52,_RNvCsjgCXKMWxvBQ_14website_server3run
FN:35,_RNvXCsjgCXKMWxvBQ_14website_serverNtB2_6ConfigNtNtCs9bgXZFP4km6_4core7default7Default7default
FNDA:0,_RNCNCNCNCNvCsjgCXKMWxvBQ_14website_server3run0000B9_
FNDA:0,_RNCNCNCNvCsjgCXKMWxvBQ_14website_server3run000B7_
FNDA:0,_RNCNCNCNvCsjgCXKMWxvBQ_14website_server3run0s_00B7_
FNDA:0,_RNCNCNvCsjgCXKMWxvBQ_14website_server3run00B5_
FNDA:0,_RNCNCNvCsjgCXKMWxvBQ_14website_server3run0s_0B5_
FNDA:0,_RNCNvCsjgCXKMWxvBQ_14website_server3run0B3_
FNDA:0,_RNvCsjgCXKMWxvBQ_14website_server22current_exe_parent_dir
FNDA:0,_RNvCsjgCXKMWxvBQ_14website_server3run
FNDA:0,_RNvXCsjgCXKMWxvBQ_14website_serverNtB2_6ConfigNtNtCs9bgXZFP4km6_4core7default7Default7default
FNF:9
FNH:0
DA:11,0
DA:12,0
DA:13,0
DA:14,0
DA:15,0
DA:16,0
DA:17,0
DA:35,0
DA:36,0
DA:37,0
DA:38,0
DA:39,0
DA:40,0
DA:41,0
DA:42,0
DA:43,0
DA:52,0
DA:53,0
DA:55,0
DA:56,0
DA:57,0
DA:58,0
DA:59,0
DA:60,0
DA:62,0
DA:63,0
DA:64,0
DA:65,0
DA:68,0
DA:70,0
DA:71,0
DA:72,0
DA:73,0
DA:74,0
DA:75,0
DA:80,0
DA:81,0
DA:84,0
DA:86,0
DA:87,0
DA:90,0
DA:91,0
DA:92,0
DA:96,0
DA:97,0
DA:101,0
DA:102,0
DA:103,0
DA:105,0
DA:106,0
DA:107,0
DA:109,0
DA:110,0
DA:111,0
DA:112,0
DA:114,0
DA:115,0
DA:116,0
DA:118,0
DA:119,0
DA:120,0
DA:122,0
DA:125,0
DA:126,0
DA:127,0
DA:131,0
DA:132,0
DA:133,0
DA:134,0
DA:135,0
DA:136,0
DA:137,0
DA:138,0
DA:139,0
DA:142,0
DA:143,0
DA:144,0
DA:145,0
DA:146,0
DA:147,0
DA:148,0
DA:150,0
DA:151,0
DA:152,0
DA:153,0
DA:155,0
DA:156,0
DA:157,0
DA:158,0
DA:160,0
DA:161,0
DA:162,0
DA:165,0
DA:166,0
BRF:0
BRH:0
LF:97
LH:0
end_of_record
SF:/mnt/040b9fb6-50c4-4490-87c6-b7dd911435c9/Projects/rust/manga-vault/apps/website/server/src/main.rs
FN:5,_RNCNvCsiL5TIhFCb6r_26manga_vault_website_server4main0B3_
FN:5,_RNvCsiL5TIhFCb6r_26manga_vault_website_server4main
FNDA:0,_RNCNvCsiL5TIhFCb6r_26manga_vault_website_server4main0B3_
FNDA:0,_RNvCsiL5TIhFCb6r_26manga_vault_website_server4main
FNF:2
FNH:0
DA:5,0
DA:6,0
DA:8,0
DA:9,0
DA:10,0
DA:11,0
DA:12,0
DA:13,0
DA:18,0
DA:19,0
DA:22,0
DA:24,0
DA:25,0
DA:28,0
DA:29,0
DA:30,0
DA:34,0
DA:35,0
DA:39,0
DA:41,0
DA:42,0
BRF:0
BRH:0
LF:23
LH:0
end_of_record
SF:/mnt/040b9fb6-50c4-4490-87c6-b7dd911435c9/Projects/rust/manga-vault/config/derive/src/lib.rs
FN:19,_RNCNCNvCs5G6OB31fhYX_13config_derive13derive_config00B5_
FN:17,_RNCNvCs5G6OB31fhYX_13config_derive13derive_config0B3_
FN:6,_RNvCs5G6OB31fhYX_13config_derive13derive_config
FN:19,_RNCNCNvCs9oY7HYxiCgZ_13config_derive13derive_config00B5_
FN:17,_RNCNvCs9oY7HYxiCgZ_13config_derive13derive_config0B3_
FN:6,_RNvCs9oY7HYxiCgZ_13config_derive13derive_config
FNDA:0,_RNCNCNvCs5G6OB31fhYX_13config_derive13derive_config00B5_
FNDA:0,_RNCNvCs5G6OB31fhYX_13config_derive13derive_config0B3_
FNDA:0,_RNvCs5G6OB31fhYX_13config_derive13derive_config
FNDA:12,_RNCNCNvCs9oY7HYxiCgZ_13config_derive13derive_config00B5_
FNDA:12,_RNCNvCs9oY7HYxiCgZ_13config_derive13derive_config0B3_
FNDA:12,_RNvCs9oY7HYxiCgZ_13config_derive13derive_config
FNF:3
FNH:3
DA:6,12
DA:7,12
DA:8,12
DA:10,12
DA:12,12
DA:13,12
DA:14,0
DA:15,12
DA:16,12
DA:17,12
DA:18,12
DA:19,12
DA:20,12
DA:21,12
DA:22,12
DA:23,0
DA:24,12
DA:25,12
DA:26,12
DA:27,12
DA:28,0
DA:31,12
DA:33,12
DA:68,12
DA:69,12
BRF:0
BRH:0
LF:27
LH:24
end_of_record
SF:/mnt/040b9fb6-50c4-4490-87c6-b7dd911435c9/Projects/rust/manga-vault/config/src/lib.rs
FN:86,_RNvCsiF0L0YVN6tm_6config12merge_values
FN:70,_RNvCsiF0L0YVN6tm_6config16build_value_tree
FN:11,_RINvCsiF0L0YVN6tm_6config11load_configpEB2_
FN:17,_RNCINvCsiF0L0YVN6tm_6config11load_configpE0B4_
FN:29,_RNCINvCsiF0L0YVN6tm_6config11load_configpEs_0B4_
FN:56,_RNvCsiF0L0YVN6tm_6config13read_env_vars
FN:49,_RNvCsiF0L0YVN6tm_6config14read_json_file
FN:79,_RNCNvCsiF0L0YVN6tm_6config16build_value_tree0B3_
FNDA:1,_RNvCsiF0L0YVN6tm_6config12merge_values
FNDA:3,_RNvCsiF0L0YVN6tm_6config16build_value_tree
FNDA:0,_RINvCsiF0L0YVN6tm_6config11load_configpEB2_
FNDA:0,_RNCINvCsiF0L0YVN6tm_6config11load_configpE0B4_
FNDA:0,_RNCINvCsiF0L0YVN6tm_6config11load_configpEs_0B4_
FNDA:0,_RNvCsiF0L0YVN6tm_6config13read_env_vars
FNDA:0,_RNvCsiF0L0YVN6tm_6config14read_json_file
FNDA:2,_RNCNvCsiF0L0YVN6tm_6config16build_value_tree0B3_
FNF:8
FNH:3
DA:11,0
DA:12,0
DA:13,0
DA:15,0
DA:16,0
DA:17,0
DA:19,0
DA:21,0
DA:22,0
DA:23,0
DA:24,0
DA:25,0
DA:26,0
DA:27,0
DA:29,0
DA:30,0
DA:32,0
DA:33,0
DA:35,0
DA:36,0
DA:37,0
DA:39,0
DA:40,0
DA:42,0
DA:43,0
DA:45,0
DA:46,0
DA:47,0
DA:49,0
DA:50,0
DA:51,0
DA:52,0
DA:53,0
DA:54,0
DA:56,0
DA:57,0
DA:58,0
DA:60,0
DA:61,0
DA:62,0
DA:63,0
DA:64,0
DA:65,0
DA:67,0
DA:68,0
DA:70,3
DA:71,3
DA:72,0
DA:73,3
DA:75,3
DA:76,3
DA:77,1
DA:78,1
DA:79,2
DA:80,2
DA:81,2
DA:82,2
DA:84,3
DA:86,1
DA:87,1
DA:88,3
DA:89,2
DA:90,0
DA:91,0
DA:92,0
DA:93,0
DA:94,2
DA:95,2
DA:97,0
DA:98,1
BRF:0
BRH:0
LF:73
LH:20
end_of_record
SF:/mnt/040b9fb6-50c4-4490-87c6-b7dd911435c9/Projects/rust/manga-vault/database/connection/src/lib.rs
FN:205,_RNCNCNvMs_CsfdJYQ489FcS_19database_connectionNtB8_8Database15cleanup_backups00B8_
FN:212,_RNCNCNvMs_CsfdJYQ489FcS_19database_connectionNtB8_8Database15cleanup_backups0s0_0B8_
FN:206,_RNCNCNvMs_CsfdJYQ489FcS_19database_connectionNtB8_8Database15cleanup_backups0s_0B8_
FN:143,_RNCNCNvMs_CsfdJYQ489FcS_19database_connectionNtB8_8Database3new00B8_
FN:153,_RNCNCNvMs_CsfdJYQ489FcS_19database_connectionNtB8_8Database3new0s_0B8_
FN:187,_RNCNvMs_CsfdJYQ489FcS_19database_connectionNtB6_8Database15cleanup_backups0B6_
FN:74,_RNCNvMs_CsfdJYQ489FcS_19database_connectionNtB6_8Database3new0B6_
FN:167,_RNCNvMs_CsfdJYQ489FcS_19database_connectionNtB6_8Database6backup0B6_
FN:227,_RNvCsfdJYQ489FcS_19database_connection16parse_sqlite_url
FN:33,_RNvCsfdJYQ489FcS_19database_connection22current_exe_parent_dir
FN:187,_RNvMs_CsfdJYQ489FcS_19database_connectionNtB4_8Database15cleanup_backups
FN:74,_RNvMs_CsfdJYQ489FcS_19database_connectionNtB4_8Database3new
FN:167,_RNvMs_CsfdJYQ489FcS_19database_connectionNtB4_8Database6backup
FN:55,_RNvXCsfdJYQ489FcS_19database_connectionNtB2_6ConfigNtNtCs9bgXZFP4km6_4core7default7Default7default
FNDA:0,_RNCNCNvMs_CsfdJYQ489FcS_19database_connectionNtB8_8Database15cleanup_backups00B8_
FNDA:0,_RNCNCNvMs_CsfdJYQ489FcS_19database_connectionNtB8_8Database15cleanup_backups0s0_0B8_
FNDA:0,_RNCNCNvMs_CsfdJYQ489FcS_19database_connectionNtB8_8Database15cleanup_backups0s_0B8_
FNDA:0,_RNCNCNvMs_CsfdJYQ489FcS_19database_connectionNtB8_8Database3new00B8_
FNDA:0,_RNCNCNvMs_CsfdJYQ489FcS_19database_connectionNtB8_8Database3new0s_0B8_
FNDA:0,_RNCNvMs_CsfdJYQ489FcS_19database_connectionNtB6_8Database15cleanup_backups0B6_
FNDA:0,_RNCNvMs_CsfdJYQ489FcS_19database_connectionNtB6_8Database3new0B6_
FNDA:0,_RNCNvMs_CsfdJYQ489FcS_19database_connectionNtB6_8Database6backup0B6_
FNDA:0,_RNvCsfdJYQ489FcS_19database_connection16parse_sqlite_url
FNDA:0,_RNvCsfdJYQ489FcS_19database_connection22current_exe_parent_dir
FNDA:0,_RNvMs_CsfdJYQ489FcS_19database_connectionNtB4_8Database15cleanup_backups
FNDA:0,_RNvMs_CsfdJYQ489FcS_19database_connectionNtB4_8Database3new
FNDA:0,_RNvMs_CsfdJYQ489FcS_19database_connectionNtB4_8Database6backup
FNDA:0,_RNvXCsfdJYQ489FcS_19database_connectionNtB2_6ConfigNtNtCs9bgXZFP4km6_4core7default7Default7default
FNF:14
FNH:0
DA:33,0
DA:34,0
DA:35,0
DA:36,0
DA:37,0
DA:38,0
DA:39,0
DA:55,0
DA:56,0
DA:57,0
DA:58,0
DA:59,0
DA:60,0
DA:61,0
DA:62,0
DA:74,0
DA:75,0
DA:77,0
DA:79,0
DA:81,0
DA:82,0
DA:83,0
DA:85,0
DA:87,0
DA:88,0
DA:90,0
DA:93,0
DA:94,0
DA:96,0
DA:97,0
DA:98,0
DA:99,0
DA:100,0
DA:102,0
DA:103,0
DA:104,0
DA:105,0
DA:107,0
DA:108,0
DA:109,0
DA:112,0
DA:115,0
DA:116,0
DA:117,0
DA:119,0
DA:120,0
DA:121,0
DA:122,0
DA:123,0
DA:126,0
DA:127,0
DA:131,0
DA:132,0
DA:133,0
DA:134,0
DA:135,0
DA:136,0
DA:138,0
DA:139,0
DA:140,0
DA:142,0
DA:143,0
DA:145,0
DA:146,0
DA:147,0
DA:148,0
DA:152,0
DA:153,0
DA:155,0
DA:156,0
DA:157,0
DA:158,0
DA:161,0
DA:163,0
DA:164,0
DA:165,0
DA:167,0
DA:168,0
DA:169,0
DA:170,0
DA:172,0
DA:174,0
DA:175,0
DA:176,0
DA:178,0
DA:179,0
DA:180,0
DA:182,0
DA:183,0
DA:184,0
DA:185,0
DA:187,0
DA:188,0
DA:189,0
DA:190,0
DA:192,0
DA:193,0
DA:194,0
DA:195,0
DA:197,0
DA:198,0
DA:200,0
DA:201,0
DA:202,0
DA:204,0
DA:205,0
DA:206,0
DA:207,0
DA:208,0
DA:209,0
DA:211,0
DA:212,0
DA:213,0
DA:214,0
DA:215,0
DA:216,0
DA:217,0
DA:218,0
DA:219,0
DA:220,0
DA:223,0
DA:224,0
DA:227,0
DA:228,0
DA:229,0
DA:231,0
DA:232,0
DA:233,0
DA:234,0
DA:236,0
DA:238,0
DA:240,0
DA:244,0
DA:245,0
DA:246,0
DA:247,0
BRF:0
BRH:0
LF:145
LH:0
end_of_record
SF:/mnt/040b9fb6-50c4-4490-87c6-b7dd911435c9/Projects/rust/manga-vault/database/entities/src/categories.rs
FN:30,_RNvXNtCs2OHqVIUEdak_17database_entities10categoriesNtB2_6EntityINtNtNtCsjBslPxhVIiT_7sea_orm6entity8relation7RelatedNtNtB4_15favorite_mangas6EntityE2to
FN:36,_RNvXs_NtCs2OHqVIUEdak_17database_entities10categoriesNtB4_6EntityINtNtNtCsjBslPxhVIiT_7sea_orm6entity8relation7RelatedNtNtB6_5users6EntityE2to
FNDA:0,_RNvXNtCs2OHqVIUEdak_17database_entities10categoriesNtB2_6EntityINtNtNtCsjBslPxhVIiT_7sea_orm6entity8relation7RelatedNtNtB4_15favorite_mangas6EntityE2to
FNDA:0,_RNvXs_NtCs2OHqVIUEdak_17database_entities10categoriesNtB4_6EntityINtNtNtCsjBslPxhVIiT_7sea_orm6entity8relation7RelatedNtNtB6_5users6EntityE2to
FNF:2
FNH:0
DA:30,0
DA:31,0
DA:32,0
DA:36,0
DA:37,0
DA:38,0
BRF:0
BRH:0
LF:6
LH:0
end_of_record
SF:/mnt/040b9fb6-50c4-4490-87c6-b7dd911435c9/Projects/rust/manga-vault/database/entities/src/chapters.rs
FN:33,_RNvXNtCs2OHqVIUEdak_17database_entities8chaptersNtB2_6EntityINtNtNtCsjBslPxhVIiT_7sea_orm6entity8relation7RelatedNtNtB4_6mangas6EntityE2to
FN:39,_RNvXs_NtCs2OHqVIUEdak_17database_entities8chaptersNtB4_6EntityINtNtNtCsjBslPxhVIiT_7sea_orm6entity8relation7RelatedNtNtB6_13read_chapters6EntityE2to
FNDA:0,_RNvXNtCs2OHqVIUEdak_17database_entities8chaptersNtB2_6EntityINtNtNtCsjBslPxhVIiT_7sea_orm6entity8relation7RelatedNtNtB4_6mangas6EntityE2to
FNDA:0,_RNvXs_NtCs2OHqVIUEdak_17database_entities8chaptersNtB4_6EntityINtNtNtCsjBslPxhVIiT_7sea_orm6entity8relation7RelatedNtNtB6_13read_chapters6EntityE2to
FNF:2
FNH:0
DA:33,0
DA:34,0
DA:35,0
DA:39,0
DA:40,0
DA:41,0
BRF:0
BRH:0
LF:6
LH:0
end_of_record
SF:/mnt/040b9fb6-50c4-4490-87c6-b7dd911435c9/Projects/rust/manga-vault/database/entities/src/favorite_mangas.rs
FN:45,_RNvXNtCs2OHqVIUEdak_17database_entities15favorite_mangasNtB2_6EntityINtNtNtCsjBslPxhVIiT_7sea_orm6entity8relation7RelatedNtNtB4_10categories6EntityE2to
FN:57,_RNvXs0_NtCs2OHqVIUEdak_17database_entities15favorite_mangasNtB5_6EntityINtNtNtCsjBslPxhVIiT_7sea_orm6entity8relation7RelatedNtNtB7_5users6EntityE2to
FN:51,_RNvXs_NtCs2OHqVIUEdak_17database_entities15favorite_mangasNtB4_6EntityINtNtNtCsjBslPxhVIiT_7sea_orm6entity8relation7RelatedNtNtB6_6mangas6EntityE2to
FNDA:0,_RNvXNtCs2OHqVIUEdak_17database_entities15favorite_mangasNtB2_6EntityINtNtNtCsjBslPxhVIiT_7sea_orm6entity8relation7RelatedNtNtB4_10categories6EntityE2to
FNDA:0,_RNvXs0_NtCs2OHqVIUEdak_17database_entities15favorite_mangasNtB5_6EntityINtNtNtCsjBslPxhVIiT_7sea_orm6entity8relation7RelatedNtNtB7_5users6EntityE2to
FNDA:0,_RNvXs_NtCs2OHqVIUEdak_17database_entities15favorite_mangasNtB4_6EntityINtNtNtCsjBslPxhVIiT_7sea_orm6entity8relation7RelatedNtNtB6_6mangas6EntityE2to
FNF:3
FNH:0
DA:45,0
DA:46,0
DA:47,0
DA:51,0
DA:52,0
DA:53,0
DA:57,0
DA:58,0
DA:59,0
BRF:0
BRH:0
LF:9
LH:0
end_of_record
SF:/mnt/040b9fb6-50c4-4490-87c6-b7dd911435c9/Projects/rust/manga-vault/database/entities/src/files.rs
FN:28,_RNvXNtCs2OHqVIUEdak_17database_entities5filesNtB2_6EntityINtNtNtCsjBslPxhVIiT_7sea_orm6entity8relation7RelatedNtNtB4_5users6EntityE2to
FNDA:0,_RNvXNtCs2OHqVIUEdak_17database_entities5filesNtB2_6EntityINtNtNtCsjBslPxhVIiT_7sea_orm6entity8relation7RelatedNtNtB4_5users6EntityE2to
FNF:1
FNH:0
DA:28,0
DA:29,0
DA:30,0
BRF:0
BRH:0
LF:3
LH:0
end_of_record
SF:/mnt/040b9fb6-50c4-4490-87c6-b7dd911435c9/Projects/rust/manga-vault/database/entities/src/manga_pack_members.rs
FN:35,_RNvXNtCs2OHqVIUEdak_17database_entities18manga_pack_membersNtB2_6EntityINtNtNtCsjBslPxhVIiT_7sea_orm6entity8relation7RelatedNtNtB4_11manga_packs6EntityE2to
FN:41,_RNvXs_NtCs2OHqVIUEdak_17database_entities18manga_pack_membersNtB4_6EntityINtNtNtCsjBslPxhVIiT_7sea_orm6entity8relation7RelatedNtNtB6_6mangas6EntityE2to
FNDA:0,_RNvXNtCs2OHqVIUEdak_17database_entities18manga_pack_membersNtB2_6EntityINtNtNtCsjBslPxhVIiT_7sea_orm6entity8relation7RelatedNtNtB4_11manga_packs6EntityE2to
FNDA:0,_RNvXs_NtCs2OHqVIUEdak_17database_entities18manga_pack_membersNtB4_6EntityINtNtNtCsjBslPxhVIiT_7sea_orm6entity8relation7RelatedNtNtB6_6mangas6EntityE2to
FNF:2
FNH:0
DA:35,0
DA:36,0
DA:37,0
DA:41,0
DA:42,0
DA:43,0
BRF:0
BRH:0
LF:6
LH:0
end_of_record
SF:/mnt/040b9fb6-50c4-4490-87c6-b7dd911435c9/Projects/rust/manga-vault/database/entities/src/manga_packs.rs
FN:29,_RNvXNtCs2OHqVIUEdak_17database_entities11manga_packsNtB2_6EntityINtNtNtCsjBslPxhVIiT_7sea_orm6entity8relation7RelatedNtNtB4_18manga_pack_members6EntityE2to
FN:35,_RNvXs_NtCs2OHqVIUEdak_17database_entities11manga_packsNtB4_6EntityINtNtNtCsjBslPxhVIiT_7sea_orm6entity8relation7RelatedNtNtB6_5users6EntityE2to
FNDA:0,_RNvXNtCs2OHqVIUEdak_17database_entities11manga_packsNtB2_6EntityINtNtNtCsjBslPxhVIiT_7sea_orm6entity8relation7RelatedNtNtB4_18manga_pack_members6EntityE2to
FNDA:0,_RNvXs_NtCs2OHqVIUEdak_17database_entities11manga_packsNtB4_6EntityINtNtNtCsjBslPxhVIiT_7sea_orm6entity8relation7RelatedNtNtB6_5users6EntityE2to
FNF:2
FNH:0
DA:29,0
DA:30,0
DA:31,0
DA:35,0
DA:36,0
DA:37,0
BRF:0
BRH:0
LF:6
LH:0
end_of_record
SF:/mnt/040b9fb6-50c4-4490-87c6-b7dd911435c9/Projects/rust/manga-vault/database/entities/src/mangas.rs
FN:44,_RNvXNtCs2OHqVIUEdak_17database_entities6mangasNtB2_6EntityINtNtNtCsjBslPxhVIiT_7sea_orm6entity8relation7RelatedNtNtB4_8chapters6EntityE2to
FN:56,_RNvXs0_NtCs2OHqVIUEdak_17database_entities6mangasNtB5_6EntityINtNtNtCsjBslPxhVIiT_7sea_orm6entity8relation7RelatedNtNtB7_18manga_pack_members6EntityE2to
FN:62,_RNvXs1_NtCs2OHqVIUEdak_17database_entities6mangasNtB5_6EntityINtNtNtCsjBslPxhVIiT_7sea_orm6entity8relation7RelatedNtNtB7_13read_chapters6EntityE2to
FN:50,_RNvXs_NtCs2OHqVIUEdak_17database_entities6mangasNtB4_6EntityINtNtNtCsjBslPxhVIiT_7sea_orm6entity8relation7RelatedNtNtB6_15favorite_mangas6EntityE2to
FNDA:0,_RNvXNtCs2OHqVIUEdak_17database_entities6mangasNtB2_6EntityINtNtNtCsjBslPxhVIiT_7sea_orm6entity8relation7RelatedNtNtB4_8chapters6EntityE2to
FNDA:0,_RNvXs0_NtCs2OHqVIUEdak_17database_entities6mangasNtB5_6EntityINtNtNtCsjBslPxhVIiT_7sea_orm6entity8relation7RelatedNtNtB7_18manga_pack_members6EntityE2to
FNDA:0,_RNvXs1_NtCs2OHqVIUEdak_17database_entities6mangasNtB5_6EntityINtNtNtCsjBslPxhVIiT_7sea_orm6entity8relation7RelatedNtNtB7_13read_chapters6EntityE2to
FNDA:0,_RNvXs_NtCs2OHqVIUEdak_17database_entities6mangasNtB4_6EntityINtNtNtCsjBslPxhVIiT_7sea_orm6entity8relation7RelatedNtNtB6_15favorite_mangas6EntityE2to
FNF:4
FNH:0
DA:44,0
DA:45,0
DA:46,0
DA:50,0
DA:51,0
DA:52,0
DA:56,0
DA:57,0
DA:58,0
DA:62,0
DA:63,0
DA:64,0
BRF:0
BRH:0
LF:12
LH:0
end_of_record
SF:/mnt/040b9fb6-50c4-4490-87c6-b7dd911435c9/Projects/rust/manga-vault/database/entities/src/read_chapters.rs
FN:45,_RNvXNtCs2OHqVIUEdak_17database_entities13read_chaptersNtB2_6EntityINtNtNtCsjBslPxhVIiT_7sea_orm6entity8relation7RelatedNtNtB4_8chapters6EntityE2to
FN:57,_RNvXs0_NtCs2OHqVIUEdak_17database_entities13read_chaptersNtB5_6EntityINtNtNtCsjBslPxhVIiT_7sea_orm6entity8relation7RelatedNtNtB7_5users6EntityE2to
FN:51,_RNvXs_NtCs2OHqVIUEdak_17database_entities13read_chaptersNtB4_6EntityINtNtNtCsjBslPxhVIiT_7sea_orm6entity8relation7RelatedNtNtB6_6mangas6EntityE2to
FNDA:0,_RNvXNtCs2OHqVIUEdak_17database_entities13read_chaptersNtB2_6EntityINtNtNtCsjBslPxhVIiT_7sea_orm6entity8relation7RelatedNtNtB4_8chapters6EntityE2to
FNDA:0,_RNvXs0_NtCs2OHqVIUEdak_17database_entities13read_chaptersNtB5_6EntityINtNtNtCsjBslPxhVIiT_7sea_orm6entity8relation7RelatedNtNtB7_5users6EntityE2to
FNDA:0,_RNvXs_NtCs2OHqVIUEdak_17database_entities13read_chaptersNtB4_6EntityINtNtNtCsjBslPxhVIiT_7sea_orm6entity8relation7RelatedNtNtB6_6mangas6EntityE2to
FNF:3
FNH:0
DA:45,0
DA:46,0
DA:47,0
DA:51,0
DA:52,0
DA:53,0
DA:57,0
DA:58,0
DA:59,0
BRF:0
BRH:0
LF:9
LH:0
end_of_record
SF:/mnt/040b9fb6-50c4-4490-87c6-b7dd911435c9/Projects/rust/manga-vault/database/entities/src/users.rs
FN:31,_RNvXNtCs2OHqVIUEdak_17database_entities5usersNtB2_6EntityINtNtNtCsjBslPxhVIiT_7sea_orm6entity8relation7RelatedNtNtB4_10categories6EntityE2to
FN:43,_RNvXs0_NtCs2OHqVIUEdak_17database_entities5usersNtB5_6EntityINtNtNtCsjBslPxhVIiT_7sea_orm6entity8relation7RelatedNtNtB7_5files6EntityE2to
FN:49,_RNvXs1_NtCs2OHqVIUEdak_17database_entities5usersNtB5_6EntityINtNtNtCsjBslPxhVIiT_7sea_orm6entity8relation7RelatedNtNtB7_11manga_packs6EntityE2to
FN:55,_RNvXs2_NtCs2OHqVIUEdak_17database_entities5usersNtB5_6EntityINtNtNtCsjBslPxhVIiT_7sea_orm6entity8relation7RelatedNtNtB7_13read_chapters6EntityE2to
FN:37,_RNvXs_NtCs2OHqVIUEdak_17database_entities5usersNtB4_6EntityINtNtNtCsjBslPxhVIiT_7sea_orm6entity8relation7RelatedNtNtB6_15favorite_mangas6EntityE2to
FNDA:0,_RNvXNtCs2OHqVIUEdak_17database_entities5usersNtB2_6EntityINtNtNtCsjBslPxhVIiT_7sea_orm6entity8relation7RelatedNtNtB4_10categories6EntityE2to
FNDA:0,_RNvXs0_NtCs2OHqVIUEdak_17database_entities5usersNtB5_6EntityINtNtNtCsjBslPxhVIiT_7sea_orm6entity8relation7RelatedNtNtB7_5files6EntityE2to
FNDA:0,_RNvXs1_NtCs2OHqVIUEdak_17database_entities5usersNtB5_6EntityINtNtNtCsjBslPxhVIiT_7sea_orm6entity8relation7RelatedNtNtB7_11manga_packs6EntityE2to
FNDA:0,_RNvXs2_NtCs2OHqVIUEdak_17database_entities5usersNtB5_6EntityINtNtNtCsjBslPxhVIiT_7sea_orm6entity8relation7RelatedNtNtB7_13read_chapters6EntityE2to
FNDA:0,_RNvXs_NtCs2OHqVIUEdak_17database_entities5usersNtB4_6EntityINtNtNtCsjBslPxhVIiT_7sea_orm6entity8relation7RelatedNtNtB6_15favorite_mangas6EntityE2to
FNF:5
FNH:0
DA:31,0
DA:32,0
DA:33,0
DA:37,0
DA:38,0
DA:39,0
DA:43,0
DA:44,0
DA:45,0
DA:49,0
DA:50,0
DA:51,0
DA:55,0
DA:56,0
DA:57,0
BRF:0
BRH:0
LF:15
LH:0
end_of_record
SF:/mnt/040b9fb6-50c4-4490-87c6-b7dd911435c9/Projects/rust/manga-vault/database/migration/src/lib.rs
FN:18,_RNvXCslqeubYbJhbm_18database_migrationNtB2_8MigratorNtNtCs7XILlKUcyNg_17sea_orm_migration8migrator13MigratorTrait10migrations
FNDA:0,_RNvXCslqeubYbJhbm_18database_migrationNtB2_8MigratorNtNtCs7XILlKUcyNg_17sea_orm_migration8migrator13MigratorTrait10migrations
FNF:1
FNH:0
DA:18,0
DA:19,0
DA:20,0
DA:21,0
DA:22,0
DA:23,0
DA:24,0
DA:25,0
DA:26,0
DA:27,0
DA:28,0
DA:29,0
DA:31,0
BRF:0
BRH:0
LF:13
LH:0
end_of_record
SF:/mnt/040b9fb6-50c4-4490-87c6-b7dd911435c9/Projects/rust/manga-vault/database/migration/src/m20220101_000001_create_tables.rs
FN:8,_RNvXs_NtCslqeubYbJhbm_18database_migration30m20220101_000001_create_tablesNtB4_9MigrationNtCs7XILlKUcyNg_17sea_orm_migration14MigrationTrait2up
FN:189,_RNvXs_NtCslqeubYbJhbm_18database_migration30m20220101_000001_create_tablesNtB4_9MigrationNtCs7XILlKUcyNg_17sea_orm_migration14MigrationTrait4down
FNDA:0,_RNvXs_NtCslqeubYbJhbm_18database_migration30m20220101_000001_create_tablesNtB4_9MigrationNtCs7XILlKUcyNg_17sea_orm_migration14MigrationTrait2up
FNDA:0,_RNvXs_NtCslqeubYbJhbm_18database_migration30m20220101_000001_create_tablesNtB4_9MigrationNtCs7XILlKUcyNg_17sea_orm_migration14MigrationTrait4down
FNF:2
FNH:0
DA:8,0
DA:187,0
DA:189,0
DA:212,0
BRF:0
BRH:0
LF:4
LH:0
end_of_record
SF:/mnt/040b9fb6-50c4-4490-87c6-b7dd911435c9/Projects/rust/manga-vault/database/migration/src/m20240328_005922_add_image_id_to_user.rs
FN:8,_RNvXs_NtCslqeubYbJhbm_18database_migration37m20240328_005922_add_image_id_to_userNtB4_9MigrationNtCs7XILlKUcyNg_17sea_orm_migration14MigrationTrait2up
FN:21,_RNvXs_NtCslqeubYbJhbm_18database_migration37m20240328_005922_add_image_id_to_userNtB4_9MigrationNtCs7XILlKUcyNg_17sea_orm_migration14MigrationTrait4down
FNDA:0,_RNvXs_NtCslqeubYbJhbm_18database_migration37m20240328_005922_add_image_id_to_userNtB4_9MigrationNtCs7XILlKUcyNg_17sea_orm_migration14MigrationTrait2up
FNDA:0,_RNvXs_NtCslqeubYbJhbm_18database_migration37m20240328_005922_add_image_id_to_userNtB4_9MigrationNtCs7XILlKUcyNg_17sea_orm_migration14MigrationTrait4down
FNF:2
FNH:0
DA:8,0
DA:19,0
DA:21,0
DA:27,0
BRF:0
BRH:0
LF:4
LH:0
end_of_record
SF:/mnt/040b9fb6-50c4-4490-87c6-b7dd911435c9/Projects/rust/manga-vault/database/migration/src/m20240331_220133_create_temp_table.rs
FN:8,_RNvXs_NtCslqeubYbJhbm_18database_migration34m20240331_220133_create_temp_tableNtB4_9MigrationNtCs7XILlKUcyNg_17sea_orm_migration14MigrationTrait2up
FN:23,_RNvXs_NtCslqeubYbJhbm_18database_migration34m20240331_220133_create_temp_tableNtB4_9MigrationNtCs7XILlKUcyNg_17sea_orm_migration14MigrationTrait4down
FNDA:0,_RNvXs_NtCslqeubYbJhbm_18database_migration34m20240331_220133_create_temp_tableNtB4_9MigrationNtCs7XILlKUcyNg_17sea_orm_migration14MigrationTrait2up
FNDA:0,_RNvXs_NtCslqeubYbJhbm_18database_migration34m20240331_220133_create_temp_tableNtB4_9MigrationNtCs7XILlKUcyNg_17sea_orm_migration14MigrationTrait4down
FNF:2
FNH:0
DA:8,0
DA:21,0
DA:23,0
DA:25,0
BRF:0
BRH:0
LF:4
LH:0
end_of_record
SF:/mnt/040b9fb6-50c4-4490-87c6-b7dd911435c9/Projects/rust/manga-vault/database/migration/src/m20240430_145751_alter_temp_table.rs
FN:8,_RNvXs_NtCslqeubYbJhbm_18database_migration33m20240430_145751_alter_temp_tableNtB4_9MigrationNtCs7XILlKUcyNg_17sea_orm_migration14MigrationTrait2up
FN:25,_RNvXs_NtCslqeubYbJhbm_18database_migration33m20240430_145751_alter_temp_tableNtB4_9MigrationNtCs7XILlKUcyNg_17sea_orm_migration14MigrationTrait4down
FNDA:0,_RNvXs_NtCslqeubYbJhbm_18database_migration33m20240430_145751_alter_temp_tableNtB4_9MigrationNtCs7XILlKUcyNg_17sea_orm_migration14MigrationTrait2up
FNDA:0,_RNvXs_NtCslqeubYbJhbm_18database_migration33m20240430_145751_alter_temp_tableNtB4_9MigrationNtCs7XILlKUcyNg_17sea_orm_migration14MigrationTrait4down
FNF:2
FNH:0
DA:8,0
DA:23,0
DA:25,0
DA:40,0
BRF:0
BRH:0
LF:4
LH:0
end_of_record
SF:/mnt/040b9fb6-50c4-4490-87c6-b7dd911435c9/Projects/rust/manga-vault/database/migration/src/m20250602_200354_add_owner_to_file.rs
FN:9,_RNvXs_NtCslqeubYbJhbm_18database_migration34m20250602_200354_add_owner_to_fileNtB4_9MigrationNtCs7XILlKUcyNg_17sea_orm_migration14MigrationTrait2up
FN:79,_RNvXs_NtCslqeubYbJhbm_18database_migration34m20250602_200354_add_owner_to_fileNtB4_9MigrationNtCs7XILlKUcyNg_17sea_orm_migration14MigrationTrait4down
FNDA:0,_RNvXs_NtCslqeubYbJhbm_18database_migration34m20250602_200354_add_owner_to_fileNtB4_9MigrationNtCs7XILlKUcyNg_17sea_orm_migration14MigrationTrait2up
FNDA:0,_RNvXs_NtCslqeubYbJhbm_18database_migration34m20250602_200354_add_owner_to_fileNtB4_9MigrationNtCs7XILlKUcyNg_17sea_orm_migration14MigrationTrait4down
FNF:2
FNH:0
DA:9,0
DA:77,0
DA:79,0
DA:127,0
BRF:0
BRH:0
LF:4
LH:0
end_of_record
SF:/mnt/040b9fb6-50c4-4490-87c6-b7dd911435c9/Projects/rust/manga-vault/database/migration/src/m20250602_212249_add_indexes_to_tables.rs
FN:8,_RNvXs_NtCslqeubYbJhbm_18database_migration38m20250602_212249_add_indexes_to_tablesNtB4_9MigrationNtCs7XILlKUcyNg_17sea_orm_migration14MigrationTrait2up
FN:152,_RNvXs_NtCslqeubYbJhbm_18database_migration38m20250602_212249_add_indexes_to_tablesNtB4_9MigrationNtCs7XILlKUcyNg_17sea_orm_migration14MigrationTrait4down
FNDA:0,_RNvXs_NtCslqeubYbJhbm_18database_migration38m20250602_212249_add_indexes_to_tablesNtB4_9MigrationNtCs7XILlKUcyNg_17sea_orm_migration14MigrationTrait2up
FNDA:0,_RNvXs_NtCslqeubYbJhbm_18database_migration38m20250602_212249_add_indexes_to_tablesNtB4_9MigrationNtCs7XILlKUcyNg_17sea_orm_migration14MigrationTrait4down
FNF:2
FNH:0
DA:8,0
DA:150,0
DA:152,0
DA:251,0
BRF:0
BRH:0
LF:4
LH:0
end_of_record
SF:/mnt/040b9fb6-50c4-4490-87c6-b7dd911435c9/Projects/rust/manga-vault/database/migration/src/m20250620_173359_mangas_table_changes.rs
FN:8,_RNvXs_NtCslqeubYbJhbm_18database_migration37m20250620_173359_mangas_table_changesNtB4_9MigrationNtCs7XILlKUcyNg_17sea_orm_migration14MigrationTrait2up
FN:101,_RNvXs_NtCslqeubYbJhbm_18database_migration37m20250620_173359_mangas_table_changesNtB4_9MigrationNtCs7XILlKUcyNg_17sea_orm_migration14MigrationTrait4down
FNDA:0,_RNvXs_NtCslqeubYbJhbm_18database_migration37m20250620_173359_mangas_table_changesNtB4_9MigrationNtCs7XILlKUcyNg_17sea_orm_migration14MigrationTrait2up
FNDA:0,_RNvXs_NtCslqeubYbJhbm_18database_migration37m20250620_173359_mangas_table_changesNtB4_9MigrationNtCs7XILlKUcyNg_17sea_orm_migration14MigrationTrait4down
FNF:2
FNH:0
DA:8,0
DA:99,0
DA:101,0
DA:150,0
BRF:0
BRH:0
LF:4
LH:0
end_of_record
SF:/mnt/040b9fb6-50c4-4490-87c6-b7dd911435c9/Projects/rust/manga-vault/database/migration/src/m20250624_225246_scanlation_groups.rs
FN:8,_RNvXs_NtCslqeubYbJhbm_18database_migration34m20250624_225246_scanlation_groupsNtB4_9MigrationNtCs7XILlKUcyNg_17sea_orm_migration14MigrationTrait2up
FN:21,_RNvXs_NtCslqeubYbJhbm_18database_migration34m20250624_225246_scanlation_groupsNtB4_9MigrationNtCs7XILlKUcyNg_17sea_orm_migration14MigrationTrait4down
FNDA:0,_RNvXs_NtCslqeubYbJhbm_18database_migration34m20250624_225246_scanlation_groupsNtB4_9MigrationNtCs7XILlKUcyNg_17sea_orm_migration14MigrationTrait2up
FNDA:0,_RNvXs_NtCslqeubYbJhbm_18database_migration34m20250624_225246_scanlation_groupsNtB4_9MigrationNtCs7XILlKUcyNg_17sea_orm_migration14MigrationTrait4down
FNF:2
FNH:0
DA:8,0
DA:19,0
DA:21,0
DA:32,0
BRF:0
BRH:0
LF:4
LH:0
end_of_record
SF:/mnt/040b9fb6-50c4-4490-87c6-b7dd911435c9/Projects/rust/manga-vault/database/migration/src/m20250624_230849_create_manga_packs.rs
FN:8,_RNvXs_NtCslqeubYbJhbm_18database_migration35m20250624_230849_create_manga_packsNtB4_9MigrationNtCs7XILlKUcyNg_17sea_orm_migration14MigrationTrait2up
FN:67,_RNvXs_NtCslqeubYbJhbm_18database_migration35m20250624_230849_create_manga_packsNtB4_9MigrationNtCs7XILlKUcyNg_17sea_orm_migration14MigrationTrait4down
FNDA:0,_RNvXs_NtCslqeubYbJhbm_18database_migration35m20250624_230849_create_manga_packsNtB4_9MigrationNtCs7XILlKUcyNg_17sea_orm_migration14MigrationTrait2up
FNDA:0,_RNvXs_NtCslqeubYbJhbm_18database_migration35m20250624_230849_create_manga_packsNtB4_9MigrationNtCs7XILlKUcyNg_17sea_orm_migration14MigrationTrait4down
FNF:2
FNH:0
DA:8,0
DA:65,0
DA:67,0
DA:75,0
BRF:0
BRH:0
LF:4
LH:0
end_of_record
SF:/mnt/040b9fb6-50c4-4490-87c6-b7dd911435c9/Projects/rust/manga-vault/database/migration/src/m20250825_035028_data_time_on_temp_table.rs
FN:8,_RNvXs_NtCslqeubYbJhbm_18database_migration40m20250825_035028_data_time_on_temp_tableNtB4_9MigrationNtCs7XILlKUcyNg_17sea_orm_migration14MigrationTrait2up
FN:27,_RNvXs_NtCslqeubYbJhbm_18database_migration40m20250825_035028_data_time_on_temp_tableNtB4_9MigrationNtCs7XILlKUcyNg_17sea_orm_migration14MigrationTrait4down
FNDA:0,_RNvXs_NtCslqeubYbJhbm_18database_migration40m20250825_035028_data_time_on_temp_tableNtB4_9MigrationNtCs7XILlKUcyNg_17sea_orm_migration14MigrationTrait2up
FNDA:0,_RNvXs_NtCslqeubYbJhbm_18database_migration40m20250825_035028_data_time_on_temp_tableNtB4_9MigrationNtCs7XILlKUcyNg_17sea_orm_migration14MigrationTrait4down
FNF:2
FNH:0
DA:8,0
DA:25,0
DA:27,0
DA:33,0
BRF:0
BRH:0
LF:4
LH:0
end_of_record
SF:/mnt/040b9fb6-50c4-4490-87c6-b7dd911435c9/Projects/rust/manga-vault/database/migration/src/main.rs
FN:4,_RNCNvCs7NlY9ryqndj_18database_migration4main0B3_
FN:4,_RNvCs7NlY9ryqndj_18database_migration4main
FNDA:0,_RNCNvCs7NlY9ryqndj_18database_migration4main0B3_
FNDA:0,_RNvCs7NlY9ryqndj_18database_migration4main
FNF:2
FNH:0
DA:4,0
DA:5,0
DA:6,0
BRF:0
BRH:0
LF:5
LH:0
end_of_record
SF:/mnt/040b9fb6-50c4-4490-87c6-b7dd911435c9/Projects/rust/manga-vault/scrapers/hari_manga/src/lib.rs
FN:11,_RNvCs1iGGJWQbj6b_10hari_manga13get_image_url
FN:319,_RNvCs1iGGJWQbj6b_10hari_manga17scrape_manga_list
FN:392,_RNvCs1iGGJWQbj6b_10hari_manga18default_manga_page
FN:72,_RNvXCs1iGGJWQbj6b_10hari_mangaNtB2_11ScraperImplNtNtNtNtNtB2_7exports7scraper5types7scraper5Guest12scrape_manga
FN:57,_RNvXCs1iGGJWQbj6b_10hari_mangaNtB2_11ScraperImplNtNtNtNtNtB2_7exports7scraper5types7scraper5Guest13scrape_latest
FN:67,_RNvXCs1iGGJWQbj6b_10hari_mangaNtB2_11ScraperImplNtNtNtNtNtB2_7exports7scraper5types7scraper5Guest13scrape_search
FN:32,_RNvXCs1iGGJWQbj6b_10hari_mangaNtB2_11ScraperImplNtNtNtNtNtB2_7exports7scraper5types7scraper5Guest14scrape_chapter
FN:62,_RNvXCs1iGGJWQbj6b_10hari_mangaNtB2_11ScraperImplNtNtNtNtNtB2_7exports7scraper5types7scraper5Guest15scrape_trending
FN:276,_RNvXCs1iGGJWQbj6b_10hari_mangaNtB2_11ScraperImplNtNtNtNtNtB2_7exports7scraper5types7scraper5Guest18scrape_genres_list
FN:305,_RNvXCs1iGGJWQbj6b_10hari_mangaNtB2_11ScraperImplNtNtNtNtNtB2_7exports7scraper5types7scraper5Guest8get_info
FN:168,_RNCNCNvXCs1iGGJWQbj6b_10hari_mangaNtB6_11ScraperImplNtNtNtNtNtB6_7exports7scraper5types7scraper5Guest12scrape_mangas7_00B6_
FN:95,_RNCNvXCs1iGGJWQbj6b_10hari_mangaNtB4_11ScraperImplNtNtNtNtNtB4_7exports7scraper5types7scraper5Guest12scrape_manga0B4_
FN:132,_RNCNvXCs1iGGJWQbj6b_10hari_mangaNtB4_11ScraperImplNtNtNtNtNtB4_7exports7scraper5types7scraper5Guest12scrape_mangas0_0B4_
FN:140,_RNCNvXCs1iGGJWQbj6b_10hari_mangaNtB4_11ScraperImplNtNtNtNtNtB4_7exports7scraper5types7scraper5Guest12scrape_mangas1_0B4_
FN:147,_RNCNvXCs1iGGJWQbj6b_10hari_mangaNtB4_11ScraperImplNtNtNtNtNtB4_7exports7scraper5types7scraper5Guest12scrape_mangas2_0B4_
FN:155,_RNCNvXCs1iGGJWQbj6b_10hari_mangaNtB4_11ScraperImplNtNtNtNtNtB4_7exports7scraper5types7scraper5Guest12scrape_mangas3_0B4_
FN:160,_RNCNvXCs1iGGJWQbj6b_10hari_mangaNtB4_11ScraperImplNtNtNtNtNtB4_7exports7scraper5types7scraper5Guest12scrape_mangas4_0B4_
FN:162,_RNCNvXCs1iGGJWQbj6b_10hari_mangaNtB4_11ScraperImplNtNtNtNtNtB4_7exports7scraper5types7scraper5Guest12scrape_mangas5_0B4_
FN:167,_RNCNvXCs1iGGJWQbj6b_10hari_mangaNtB4_11ScraperImplNtNtNtNtNtB4_7exports7scraper5types7scraper5Guest12scrape_mangas6_0B4_
FN:168,_RNCNvXCs1iGGJWQbj6b_10hari_mangaNtB4_11ScraperImplNtNtNtNtNtB4_7exports7scraper5types7scraper5Guest12scrape_mangas7_0B4_
FN:186,_RNCNvXCs1iGGJWQbj6b_10hari_mangaNtB4_11ScraperImplNtNtNtNtNtB4_7exports7scraper5types7scraper5Guest12scrape_mangas8_0B4_
FN:191,_RNCNvXCs1iGGJWQbj6b_10hari_mangaNtB4_11ScraperImplNtNtNtNtNtB4_7exports7scraper5types7scraper5Guest12scrape_mangas9_0B4_
FN:105,_RNCNvXCs1iGGJWQbj6b_10hari_mangaNtB4_11ScraperImplNtNtNtNtNtB4_7exports7scraper5types7scraper5Guest12scrape_mangas_0B4_
FN:194,_RNCNvXCs1iGGJWQbj6b_10hari_mangaNtB4_11ScraperImplNtNtNtNtNtB4_7exports7scraper5types7scraper5Guest12scrape_mangasa_0B4_
FN:199,_RNCNvXCs1iGGJWQbj6b_10hari_mangaNtB4_11ScraperImplNtNtNtNtNtB4_7exports7scraper5types7scraper5Guest12scrape_mangasb_0B4_
FN:213,_RNCNvXCs1iGGJWQbj6b_10hari_mangaNtB4_11ScraperImplNtNtNtNtNtB4_7exports7scraper5types7scraper5Guest12scrape_mangasc_0B4_
FN:245,_RNCNvXCs1iGGJWQbj6b_10hari_mangaNtB4_11ScraperImplNtNtNtNtNtB4_7exports7scraper5types7scraper5Guest12scrape_mangasd_0B4_
FN:246,_RNCNvXCs1iGGJWQbj6b_10hari_mangaNtB4_11ScraperImplNtNtNtNtNtB4_7exports7scraper5types7scraper5Guest12scrape_mangase_0B4_
FN:53,_RNCNvXCs1iGGJWQbj6b_10hari_mangaNtB4_11ScraperImplNtNtNtNtNtB4_7exports7scraper5types7scraper5Guest14scrape_chapter0B4_
FN:297,_RNCNvXCs1iGGJWQbj6b_10hari_mangaNtB4_11ScraperImplNtNtNtNtNtB4_7exports7scraper5types7scraper5Guest18scrape_genres_list0B4_
FNDA:0,_RNvCs1iGGJWQbj6b_10hari_manga13get_image_url
FNDA:0,_RNvCs1iGGJWQbj6b_10hari_manga17scrape_manga_list
FNDA:0,_RNvCs1iGGJWQbj6b_10hari_manga18default_manga_page
FNDA:0,_RNvXCs1iGGJWQbj6b_10hari_mangaNtB2_11ScraperImplNtNtNtNtNtB2_7exports7scraper5types7scraper5Guest12scrape_manga
FNDA:0,_RNvXCs1iGGJWQbj6b_10hari_mangaNtB2_11ScraperImplNtNtNtNtNtB2_7exports7scraper5types7scraper5Guest13scrape_latest
FNDA:0,_RNvXCs1iGGJWQbj6b_10hari_mangaNtB2_11ScraperImplNtNtNtNtNtB2_7exports7scraper5types7scraper5Guest13scrape_search
FNDA:0,_RNvXCs1iGGJWQbj6b_10hari_mangaNtB2_11ScraperImplNtNtNtNtNtB2_7exports7scraper5types7scraper5Guest14scrape_chapter
FNDA:0,_RNvXCs1iGGJWQbj6b_10hari_mangaNtB2_11ScraperImplNtNtNtNtNtB2_7exports7scraper5types7scraper5Guest15scrape_trending
FNDA:0,_RNvXCs1iGGJWQbj6b_10hari_mangaNtB2_11ScraperImplNtNtNtNtNtB2_7exports7scraper5types7scraper5Guest18scrape_genres_list
FNDA:0,_RNvXCs1iGGJWQbj6b_10hari_mangaNtB2_11ScraperImplNtNtNtNtNtB2_7exports7scraper5types7scraper5Guest8get_info
FNDA:0,_RNCNCNvXCs1iGGJWQbj6b_10hari_mangaNtB6_11ScraperImplNtNtNtNtNtB6_7exports7scraper5types7scraper5Guest12scrape_mangas7_00B6_
FNDA:0,_RNCNvXCs1iGGJWQbj6b_10hari_mangaNtB4_11ScraperImplNtNtNtNtNtB4_7exports7scraper5types7scraper5Guest12scrape_manga0B4_
FNDA:0,_RNCNvXCs1iGGJWQbj6b_10hari_mangaNtB4_11ScraperImplNtNtNtNtNtB4_7exports7scraper5types7scraper5Guest12scrape_mangas0_0B4_
FNDA:0,_RNCNvXCs1iGGJWQbj6b_10hari_mangaNtB4_11ScraperImplNtNtNtNtNtB4_7exports7scraper5types7scraper5Guest12scrape_mangas1_0B4_
FNDA:0,_RNCNvXCs1iGGJWQbj6b_10hari_mangaNtB4_11ScraperImplNtNtNtNtNtB4_7exports7scraper5types7scraper5Guest12scrape_mangas2_0B4_
FNDA:0,_RNCNvXCs1iGGJWQbj6b_10hari_mangaNtB4_11ScraperImplNtNtNtNtNtB4_7exports7scraper5types7scraper5Guest12scrape_mangas3_0B4_
FNDA:0,_RNCNvXCs1iGGJWQbj6b_10hari_mangaNtB4_11ScraperImplNtNtNtNtNtB4_7exports7scraper5types7scraper5Guest12scrape_mangas4_0B4_
FNDA:0,_RNCNvXCs1iGGJWQbj6b_10hari_mangaNtB4_11ScraperImplNtNtNtNtNtB4_7exports7scraper5types7scraper5Guest12scrape_mangas5_0B4_
FNDA:0,_RNCNvXCs1iGGJWQbj6b_10hari_mangaNtB4_11ScraperImplNtNtNtNtNtB4_7exports7scraper5types7scraper5Guest12scrape_mangas6_0B4_
FNDA:0,_RNCNvXCs1iGGJWQbj6b_10hari_mangaNtB4_11ScraperImplNtNtNtNtNtB4_7exports7scraper5types7scraper5Guest12scrape_mangas7_0B4_
FNDA:0,_RNCNvXCs1iGGJWQbj6b_10hari_mangaNtB4_11ScraperImplNtNtNtNtNtB4_7exports7scraper5types7scraper5Guest12scrape_mangas8_0B4_
FNDA:0,_RNCNvXCs1iGGJWQbj6b_10hari_mangaNtB4_11ScraperImplNtNtNtNtNtB4_7exports7scraper5types7scraper5Guest12scrape_mangas9_0B4_
FNDA:0,_RNCNvXCs1iGGJWQbj6b_10hari_mangaNtB4_11ScraperImplNtNtNtNtNtB4_7exports7scraper5types7scraper5Guest12scrape_mangas_0B4_
FNDA:0,_RNCNvXCs1iGGJWQbj6b_10hari_mangaNtB4_11ScraperImplNtNtNtNtNtB4_7exports7scraper5types7scraper5Guest12scrape_mangasa_0B4_
FNDA:0,_RNCNvXCs1iGGJWQbj6b_10hari_mangaNtB4_11ScraperImplNtNtNtNtNtB4_7exports7scraper5types7scraper5Guest12scrape_mangasb_0B4_
FNDA:0,_RNCNvXCs1iGGJWQbj6b_10hari_mangaNtB4_11ScraperImplNtNtNtNtNtB4_7exports7scraper5types7scraper5Guest12scrape_mangasc_0B4_
FNDA:0,_RNCNvXCs1iGGJWQbj6b_10hari_mangaNtB4_11ScraperImplNtNtNtNtNtB4_7exports7scraper5types7scraper5Guest12scrape_mangasd_0B4_
FNDA:0,_RNCNvXCs1iGGJWQbj6b_10hari_mangaNtB4_11ScraperImplNtNtNtNtNtB4_7exports7scraper5types7scraper5Guest12scrape_mangase_0B4_
FNDA:0,_RNCNvXCs1iGGJWQbj6b_10hari_mangaNtB4_11ScraperImplNtNtNtNtNtB4_7exports7scraper5types7scraper5Guest14scrape_chapter0B4_
FNDA:0,_RNCNvXCs1iGGJWQbj6b_10hari_mangaNtB4_11ScraperImplNtNtNtNtNtB4_7exports7scraper5types7scraper5Guest18scrape_genres_list0B4_
FNF:30
FNH:0
DA:11,0
DA:12,0
DA:14,0
DA:15,0
DA:16,0
DA:17,0
DA:18,0
DA:19,0
DA:20,0
DA:21,0
DA:23,0
DA:25,0
DA:32,0
DA:33,0
DA:34,0
DA:36,0
DA:37,0
DA:41,0
DA:42,0
DA:43,0
DA:44,0
DA:46,0
DA:47,0
DA:48,0
DA:49,0
DA:52,0
DA:53,0
DA:54,0
DA:55,0
DA:57,0
DA:58,0
DA:59,0
DA:60,0
DA:62,0
DA:63,0
DA:64,0
DA:65,0
DA:67,0
DA:68,0
DA:69,0
DA:70,0
DA:72,0
DA:73,0
DA:74,0
DA:76,0
DA:77,0
DA:81,0
DA:82,0
DA:83,0
DA:84,0
DA:86,0
DA:88,0
DA:89,0
DA:90,0
DA:92,0
DA:93,0
DA:94,0
DA:95,0
DA:96,0
DA:98,0
DA:99,0
DA:100,0
DA:102,0
DA:103,0
DA:104,0
DA:105,0
DA:106,0
DA:108,0
DA:109,0
DA:110,0
DA:112,0
DA:113,0
DA:114,0
DA:117,0
DA:118,0
DA:119,0
DA:122,0
DA:123,0
DA:124,0
DA:125,0
DA:126,0
DA:128,0
DA:129,0
DA:130,0
DA:131,0
DA:132,0
DA:133,0
DA:134,0
DA:135,0
DA:136,0
DA:137,0
DA:139,0
DA:140,0
DA:141,0
DA:142,0
DA:143,0
DA:144,0
DA:146,0
DA:147,0
DA:148,0
DA:149,0
DA:150,0
DA:151,0
DA:153,0
DA:154,0
DA:155,0
DA:156,0
DA:157,0
DA:158,0
DA:159,0
DA:160,0
DA:161,0
DA:162,0
DA:163,0
DA:164,0
DA:165,0
DA:166,0
DA:167,0
DA:168,0
DA:169,0
DA:170,0
DA:171,0
DA:172,0
DA:173,0
DA:176,0
DA:177,0
DA:178,0
DA:179,0
DA:180,0
DA:183,0
DA:184,0
DA:185,0
DA:186,0
DA:187,0
DA:188,0
DA:189,0
DA:190,0
DA:191,0
DA:192,0
DA:193,0
DA:194,0
DA:195,0
DA:196,0
DA:197,0
DA:198,0
DA:199,0
DA:200,0
DA:201,0
DA:202,0
DA:203,0
DA:206,0
DA:207,0
DA:208,0
DA:210,0
DA:211,0
DA:212,0
DA:213,0
DA:214,0
DA:216,0
DA:217,0
DA:218,0
DA:220,0
DA:222,0
DA:223,0
DA:224,0
DA:225,0
DA:227,0
DA:228,0
DA:229,0
DA:230,0
DA:231,0
DA:233,0
DA:234,0
DA:235,0
DA:237,0
DA:238,0
DA:239,0
DA:242,0
DA:243,0
DA:244,0
DA:245,0
DA:246,0
DA:248,0
DA:249,0
DA:250,0
DA:251,0
DA:252,0
DA:253,0
DA:254,0
DA:255,0
DA:258,0
DA:260,0
DA:261,0
DA:262,0
DA:263,0
DA:264,0
DA:265,0
DA:266,0
DA:267,0
DA:268,0
DA:269,0
DA:270,0
DA:271,0
DA:272,0
DA:273,0
DA:274,0
DA:276,0
DA:277,0
DA:278,0
DA:280,0
DA:281,0
DA:285,0
DA:286,0
DA:287,0
DA:288,0
DA:290,0
DA:291,0
DA:292,0
DA:293,0
DA:296,0
DA:297,0
DA:298,0
DA:299,0
DA:300,0
DA:301,0
DA:302,0
DA:303,0
DA:305,0
DA:306,0
DA:307,0
DA:308,0
DA:309,0
DA:310,0
DA:311,0
DA:312,0
DA:313,0
DA:314,0
DA:315,0
DA:316,0
DA:319,0
DA:320,0
DA:321,0
DA:323,0
DA:324,0
DA:328,0
DA:329,0
DA:330,0
DA:331,0
DA:333,0
DA:334,0
DA:335,0
DA:336,0
DA:339,0
DA:341,0
DA:342,0
DA:343,0
DA:344,0
DA:347,0
DA:348,0
DA:349,0
DA:350,0
DA:352,0
DA:353,0
DA:354,0
DA:356,0
DA:358,0
DA:359,0
DA:360,0
DA:362,0
DA:363,0
DA:364,0
DA:366,0
DA:368,0
DA:369,0
DA:370,0
DA:372,0
DA:373,0
DA:374,0
DA:376,0
DA:377,0
DA:378,0
DA:381,0
DA:382,0
DA:383,0
DA:384,0
DA:385,0
DA:389,0
DA:390,0
DA:392,0
DA:393,0
DA:394,0
DA:395,0
DA:396,0
DA:397,0
DA:398,0
DA:399,0
DA:400,0
DA:401,0
DA:402,0
DA:403,0
DA:404,0
DA:405,0
DA:406,0
DA:407,0
BRF:0
BRH:0
LF:324
LH:0
end_of_record
SF:/mnt/040b9fb6-50c4-4490-87c6-b7dd911435c9/Projects/rust/manga-vault/scrapers/manga_dex/src/lib.rs
FN:529,_RNCNCNvCsl6m18ajDqCQ_9manga_dex14fetch_chapterss1_00B5_
FN:544,_RNCNCNvCsl6m18ajDqCQ_9manga_dex14fetch_chapterss1_0s0_0B5_
FN:545,_RNCNCNvCsl6m18ajDqCQ_9manga_dex14fetch_chapterss1_0s1_0B5_
FN:546,_RNCNCNvCsl6m18ajDqCQ_9manga_dex14fetch_chapterss1_0s2_0B5_
FN:543,_RNCNCNvCsl6m18ajDqCQ_9manga_dex14fetch_chapterss1_0s_0B5_
FN:474,_RNCNCNvCsl6m18ajDqCQ_9manga_dex17fetch_manga_itemss_00B5_
FN:475,_RNCNCNvCsl6m18ajDqCQ_9manga_dex17fetch_manga_itemss_0s_0B5_
FN:285,_RNCNCNvXs_Csl6m18ajDqCQ_9manga_dexNtB8_11ScraperImplNtNtNtNtNtB8_7exports7scraper5types7scraper5Guest14scrape_chapters0_00B8_
FN:148,_RNCNvCsl6m18ajDqCQ_9manga_dex12RATE_LIMITER0B3_
FN:504,_RNCNvCsl6m18ajDqCQ_9manga_dex14fetch_chapters0B3_
FN:520,_RNCNvCsl6m18ajDqCQ_9manga_dex14fetch_chapterss0_0B3_
FN:526,_RNCNvCsl6m18ajDqCQ_9manga_dex14fetch_chapterss1_0B3_
FN:507,_RNCNvCsl6m18ajDqCQ_9manga_dex14fetch_chapterss_0B3_
FN:460,_RNCNvCsl6m18ajDqCQ_9manga_dex17fetch_manga_items0B3_
FN:466,_RNCNvCsl6m18ajDqCQ_9manga_dex17fetch_manga_itemss_0B3_
FN:213,_RNCNvCsl6m18ajDqCQ_9manga_dex8http_get0B3_
FN:229,_RNCNvCsl6m18ajDqCQ_9manga_dex8http_gets0_0B3_
FN:228,_RNCNvCsl6m18ajDqCQ_9manga_dex8http_gets_0B3_
FN:347,_RNCNvXs_Csl6m18ajDqCQ_9manga_dexNtB6_11ScraperImplNtNtNtNtNtB6_7exports7scraper5types7scraper5Guest12scrape_manga0B6_
FN:353,_RNCNvXs_Csl6m18ajDqCQ_9manga_dexNtB6_11ScraperImplNtNtNtNtNtB6_7exports7scraper5types7scraper5Guest12scrape_mangas0_0B6_
FN:365,_RNCNvXs_Csl6m18ajDqCQ_9manga_dexNtB6_11ScraperImplNtNtNtNtNtB6_7exports7scraper5types7scraper5Guest12scrape_mangas1_0B6_
FN:367,_RNCNvXs_Csl6m18ajDqCQ_9manga_dexNtB6_11ScraperImplNtNtNtNtNtB6_7exports7scraper5types7scraper5Guest12scrape_mangas2_0B6_
FN:377,_RNCNvXs_Csl6m18ajDqCQ_9manga_dexNtB6_11ScraperImplNtNtNtNtNtB6_7exports7scraper5types7scraper5Guest12scrape_mangas3_0B6_
FN:393,_RNCNvXs_Csl6m18ajDqCQ_9manga_dexNtB6_11ScraperImplNtNtNtNtNtB6_7exports7scraper5types7scraper5Guest12scrape_mangas4_0B6_
FN:397,_RNCNvXs_Csl6m18ajDqCQ_9manga_dexNtB6_11ScraperImplNtNtNtNtNtB6_7exports7scraper5types7scraper5Guest12scrape_mangas5_0B6_
FN:398,_RNCNvXs_Csl6m18ajDqCQ_9manga_dexNtB6_11ScraperImplNtNtNtNtNtB6_7exports7scraper5types7scraper5Guest12scrape_mangas6_0B6_
FN:403,_RNCNvXs_Csl6m18ajDqCQ_9manga_dexNtB6_11ScraperImplNtNtNtNtNtB6_7exports7scraper5types7scraper5Guest12scrape_mangas7_0B6_
FN:348,_RNCNvXs_Csl6m18ajDqCQ_9manga_dexNtB6_11ScraperImplNtNtNtNtNtB6_7exports7scraper5types7scraper5Guest12scrape_mangas_0B6_
FN:273,_RNCNvXs_Csl6m18ajDqCQ_9manga_dexNtB6_11ScraperImplNtNtNtNtNtB6_7exports7scraper5types7scraper5Guest14scrape_chapter0B6_
FN:283,_RNCNvXs_Csl6m18ajDqCQ_9manga_dexNtB6_11ScraperImplNtNtNtNtNtB6_7exports7scraper5types7scraper5Guest14scrape_chapters0_0B6_
FN:277,_RNCNvXs_Csl6m18ajDqCQ_9manga_dexNtB6_11ScraperImplNtNtNtNtNtB6_7exports7scraper5types7scraper5Guest14scrape_chapters_0B6_
FN:488,_RNvCsl6m18ajDqCQ_9manga_dex14fetch_chapters
FN:449,_RNvCsl6m18ajDqCQ_9manga_dex17fetch_manga_items
FN:561,_RNvCsl6m18ajDqCQ_9manga_dex18default_manga_page
FN:239,_RNvCsl6m18ajDqCQ_9manga_dex19parse_json_response
FN:190,_RNvCsl6m18ajDqCQ_9manga_dex8http_get
FN:39,_RNvMCsl6m18ajDqCQ_9manga_dexNtB2_11RateLimiter16wait_for_request
FN:87,_RNvMCsl6m18ajDqCQ_9manga_dexNtB2_11RateLimiter18normalize_endpoint
FN:125,_RNvMCsl6m18ajDqCQ_9manga_dexNtB2_11RateLimiter19apply_global_limits
FN:50,_RNvMCsl6m18ajDqCQ_9manga_dexNtB2_11RateLimiter19update_from_headers
FN:97,_RNvMCsl6m18ajDqCQ_9manga_dexNtB2_11RateLimiter20check_retry_cooldown
FN:107,_RNvMCsl6m18ajDqCQ_9manga_dexNtB2_11RateLimiter21apply_endpoint_limits
FN:79,_RNvMCsl6m18ajDqCQ_9manga_dexNtB2_11RateLimiter26handle_rate_limit_exceeded
FN:31,_RNvMCsl6m18ajDqCQ_9manga_dexNtB2_11RateLimiter3new
FN:318,_RNvXs_Csl6m18ajDqCQ_9manga_dexNtB4_11ScraperImplNtNtNtNtNtB4_7exports7scraper5types7scraper5Guest12scrape_manga
FN:290,_RNvXs_Csl6m18ajDqCQ_9manga_dexNtB4_11ScraperImplNtNtNtNtNtB4_7exports7scraper5types7scraper5Guest13scrape_latest
FN:308,_RNvXs_Csl6m18ajDqCQ_9manga_dexNtB4_11ScraperImplNtNtNtNtNtB4_7exports7scraper5types7scraper5Guest13scrape_search
FN:251,_RNvXs_Csl6m18ajDqCQ_9manga_dexNtB4_11ScraperImplNtNtNtNtNtB4_7exports7scraper5types7scraper5Guest14scrape_chapter
FN:299,_RNvXs_Csl6m18ajDqCQ_9manga_dexNtB4_11ScraperImplNtNtNtNtNtB4_7exports7scraper5types7scraper5Guest15scrape_trending
FN:431,_RNvXs_Csl6m18ajDqCQ_9manga_dexNtB4_11ScraperImplNtNtNtNtNtB4_7exports7scraper5types7scraper5Guest18scrape_genres_list
FN:436,_RNvXs_Csl6m18ajDqCQ_9manga_dexNtB4_11ScraperImplNtNtNtNtNtB4_7exports7scraper5types7scraper5Guest8get_info
FNDA:5,_RNCNCNvCsl6m18ajDqCQ_9manga_dex14fetch_chapterss1_00B5_
FNDA:5,_RNCNCNvCsl6m18ajDqCQ_9manga_dex14fetch_chapterss1_0s0_0B5_
FNDA:5,_RNCNCNvCsl6m18ajDqCQ_9manga_dex14fetch_chapterss1_0s1_0B5_
FNDA:0,_RNCNCNvCsl6m18ajDqCQ_9manga_dex14fetch_chapterss1_0s2_0B5_
FNDA:15,_RNCNCNvCsl6m18ajDqCQ_9manga_dex14fetch_chapterss1_0s_0B5_
FNDA:97,_RNCNCNvCsl6m18ajDqCQ_9manga_dex17fetch_manga_itemss_00B5_
FNDA:30,_RNCNCNvCsl6m18ajDqCQ_9manga_dex17fetch_manga_itemss_0s_0B5_
FNDA:48,_RNCNCNvXs_Csl6m18ajDqCQ_9manga_dexNtB8_11ScraperImplNtNtNtNtNtB8_7exports7scraper5types7scraper5Guest14scrape_chapters0_00B8_
FNDA:6,_RNCNvCsl6m18ajDqCQ_9manga_dex12RATE_LIMITER0B3_
FNDA:0,_RNCNvCsl6m18ajDqCQ_9manga_dex14fetch_chapters0B3_
FNDA:1,_RNCNvCsl6m18ajDqCQ_9manga_dex14fetch_chapterss0_0B3_
FNDA:5,_RNCNvCsl6m18ajDqCQ_9manga_dex14fetch_chapterss1_0B3_
FNDA:0,_RNCNvCsl6m18ajDqCQ_9manga_dex14fetch_chapterss_0B3_
FNDA:3,_RNCNvCsl6m18ajDqCQ_9manga_dex17fetch_manga_items0B3_
FNDA:30,_RNCNvCsl6m18ajDqCQ_9manga_dex17fetch_manga_itemss_0B3_
FNDA:160,_RNCNvCsl6m18ajDqCQ_9manga_dex8http_get0B3_
FNDA:0,_RNCNvCsl6m18ajDqCQ_9manga_dex8http_gets0_0B3_
FNDA:0,_RNCNvCsl6m18ajDqCQ_9manga_dex8http_gets_0B3_
FNDA:1,_RNCNvXs_Csl6m18ajDqCQ_9manga_dexNtB6_11ScraperImplNtNtNtNtNtB6_7exports7scraper5types7scraper5Guest12scrape_manga0B6_
FNDA:1,_RNCNvXs_Csl6m18ajDqCQ_9manga_dexNtB6_11ScraperImplNtNtNtNtNtB6_7exports7scraper5types7scraper5Guest12scrape_mangas0_0B6_
FNDA:1,_RNCNvXs_Csl6m18ajDqCQ_9manga_dexNtB6_11ScraperImplNtNtNtNtNtB6_7exports7scraper5types7scraper5Guest12scrape_mangas1_0B6_
FNDA:3,_RNCNvXs_Csl6m18ajDqCQ_9manga_dexNtB6_11ScraperImplNtNtNtNtNtB6_7exports7scraper5types7scraper5Guest12scrape_mangas2_0B6_
FNDA:1,_RNCNvXs_Csl6m18ajDqCQ_9manga_dexNtB6_11ScraperImplNtNtNtNtNtB6_7exports7scraper5types7scraper5Guest12scrape_mangas3_0B6_
FNDA:0,_RNCNvXs_Csl6m18ajDqCQ_9manga_dexNtB6_11ScraperImplNtNtNtNtNtB6_7exports7scraper5types7scraper5Guest12scrape_mangas4_0B6_
FNDA:1,_RNCNvXs_Csl6m18ajDqCQ_9manga_dexNtB6_11ScraperImplNtNtNtNtNtB6_7exports7scraper5types7scraper5Guest12scrape_mangas5_0B6_
FNDA:1,_RNCNvXs_Csl6m18ajDqCQ_9manga_dexNtB6_11ScraperImplNtNtNtNtNtB6_7exports7scraper5types7scraper5Guest12scrape_mangas6_0B6_
FNDA:1,_RNCNvXs_Csl6m18ajDqCQ_9manga_dexNtB6_11ScraperImplNtNtNtNtNtB6_7exports7scraper5types7scraper5Guest12scrape_mangas7_0B6_
FNDA:1,_RNCNvXs_Csl6m18ajDqCQ_9manga_dexNtB6_11ScraperImplNtNtNtNtNtB6_7exports7scraper5types7scraper5Guest12scrape_mangas_0B6_
FNDA:1,_RNCNvXs_Csl6m18ajDqCQ_9manga_dexNtB6_11ScraperImplNtNtNtNtNtB6_7exports7scraper5types7scraper5Guest14scrape_chapter0B6_
FNDA:48,_RNCNvXs_Csl6m18ajDqCQ_9manga_dexNtB6_11ScraperImplNtNtNtNtNtB6_7exports7scraper5types7scraper5Guest14scrape_chapters0_0B6_
FNDA:1,_RNCNvXs_Csl6m18ajDqCQ_9manga_dexNtB6_11ScraperImplNtNtNtNtNtB6_7exports7scraper5types7scraper5Guest14scrape_chapters_0B6_
FNDA:1,_RNvCsl6m18ajDqCQ_9manga_dex14fetch_chapters
FNDA:3,_RNvCsl6m18ajDqCQ_9manga_dex17fetch_manga_items
FNDA:0,_RNvCsl6m18ajDqCQ_9manga_dex18default_manga_page
FNDA:6,_RNvCsl6m18ajDqCQ_9manga_dex19parse_json_response
FNDA:6,_RNvCsl6m18ajDqCQ_9manga_dex8http_get
FNDA:7,_RNvMCsl6m18ajDqCQ_9manga_dexNtB2_11RateLimiter16wait_for_request
FNDA:15,_RNvMCsl6m18ajDqCQ_9manga_dexNtB2_11RateLimiter18normalize_endpoint
FNDA:7,_RNvMCsl6m18ajDqCQ_9manga_dexNtB2_11RateLimiter19apply_global_limits
FNDA:7,_RNvMCsl6m18ajDqCQ_9manga_dexNtB2_11RateLimiter19update_from_headers
FNDA:7,_RNvMCsl6m18ajDqCQ_9manga_dexNtB2_11RateLimiter20check_retry_cooldown
FNDA:7,_RNvMCsl6m18ajDqCQ_9manga_dexNtB2_11RateLimiter21apply_endpoint_limits
FNDA:1,_RNvMCsl6m18ajDqCQ_9manga_dexNtB2_11RateLimiter26handle_rate_limit_exceeded
FNDA:6,_RNvMCsl6m18ajDqCQ_9manga_dexNtB2_11RateLimiter3new
FNDA:1,_RNvXs_Csl6m18ajDqCQ_9manga_dexNtB4_11ScraperImplNtNtNtNtNtB4_7exports7scraper5types7scraper5Guest12scrape_manga
FNDA:1,_RNvXs_Csl6m18ajDqCQ_9manga_dexNtB4_11ScraperImplNtNtNtNtNtB4_7exports7scraper5types7scraper5Guest13scrape_latest
FNDA:1,_RNvXs_Csl6m18ajDqCQ_9manga_dexNtB4_11ScraperImplNtNtNtNtNtB4_7exports7scraper5types7scraper5Guest13scrape_search
FNDA:1,_RNvXs_Csl6m18ajDqCQ_9manga_dexNtB4_11ScraperImplNtNtNtNtNtB4_7exports7scraper5types7scraper5Guest14scrape_chapter
FNDA:1,_RNvXs_Csl6m18ajDqCQ_9manga_dexNtB4_11ScraperImplNtNtNtNtNtB4_7exports7scraper5types7scraper5Guest15scrape_trending
FNDA:0,_RNvXs_Csl6m18ajDqCQ_9manga_dexNtB4_11ScraperImplNtNtNtNtNtB4_7exports7scraper5types7scraper5Guest18scrape_genres_list
FNDA:0,_RNvXs_Csl6m18ajDqCQ_9manga_dexNtB4_11ScraperImplNtNtNtNtNtB4_7exports7scraper5types7scraper5Guest8get_info
FNF:51
FNH:42
DA:31,6
DA:32,6
DA:33,6
DA:34,6
DA:35,6
DA:36,6
DA:37,6
DA:39,7
DA:40,7
DA:41,7
DA:42,0
DA:43,7
DA:45,7
DA:47,7
DA:48,7
DA:50,7
DA:51,7
DA:53,7
DA:54,7
DA:55,7
DA:57,170
DA:58,163
DA:59,163
DA:60,162
DA:61,161
DA:62,160
DA:66,7
DA:67,1
DA:68,1
DA:69,1
DA:70,1
DA:71,1
DA:72,1
DA:73,1
DA:74,1
DA:75,1
DA:76,6
DA:77,7
DA:79,1
DA:80,1
DA:81,1
DA:82,1
DA:84,1
DA:85,1
DA:87,15
DA:88,15
DA:89,15
DA:90,4
DA:92,11
DA:94,15
DA:95,15
DA:97,7
DA:98,7
DA:99,7
DA:100,0
DA:101,0
DA:102,0
DA:104,7
DA:105,7
DA:107,7
DA:108,7
DA:109,0
DA:110,0
DA:111,0
DA:113,0
DA:114,0
DA:115,0
DA:116,0
DA:117,0
DA:118,0
DA:119,0
DA:121,0
DA:122,7
DA:123,7
DA:125,7
DA:126,7
DA:127,7
DA:128,1
DA:129,0
DA:130,0
DA:131,1
DA:135,7
DA:136,0
DA:137,0
DA:138,0
DA:139,0
DA:140,0
DA:141,0
DA:142,7
DA:144,7
DA:145,7
DA:148,6
DA:190,6
DA:191,6
DA:192,6
DA:194,6
DA:195,6
DA:197,6
DA:198,6
DA:200,6
DA:202,6
DA:203,6
DA:204,6
DA:205,6
DA:207,6
DA:208,6
DA:209,6
DA:210,6
DA:211,6
DA:212,6
DA:213,160
DA:214,160
DA:215,160
DA:216,6
DA:219,6
DA:221,6
DA:222,6
DA:225,0
DA:226,0
DA:227,0
DA:228,0
DA:229,0
DA:230,0
DA:232,0
DA:233,0
DA:235,0
DA:237,6
DA:239,6
DA:240,6
DA:241,0
DA:242,6
DA:243,6
DA:244,6
DA:251,1
DA:252,1
DA:253,1
DA:254,0
DA:255,1
DA:257,1
DA:259,1
DA:260,1
DA:261,0
DA:264,1
DA:265,1
DA:266,0
DA:269,1
DA:270,1
DA:271,0
DA:273,1
DA:274,1
DA:275,0
DA:277,1
DA:278,1
DA:279,0
DA:282,1
DA:283,48
DA:284,48
DA:285,48
DA:286,48
DA:287,1
DA:288,1
DA:290,1
DA:291,1
DA:292,1
DA:293,1
DA:296,1
DA:297,1
DA:299,1
DA:300,1
DA:301,1
DA:302,1
DA:305,1
DA:306,1
DA:308,1
DA:309,1
DA:310,1
DA:311,1
DA:312,1
DA:315,1
DA:316,1
DA:318,1
DA:319,1
DA:320,1
DA:321,0
DA:322,1
DA:324,1
DA:325,1
DA:329,1
DA:330,1
DA:331,0
DA:334,1
DA:335,1
DA:336,0
DA:339,1
DA:340,1
DA:341,0
DA:344,1
DA:345,1
DA:346,1
DA:347,1
DA:348,1
DA:349,1
DA:350,1
DA:352,1
DA:353,1
DA:354,3
DA:355,3
DA:356,1
DA:357,1
DA:358,1
DA:359,0
DA:360,2
DA:362,0
DA:364,1
DA:365,1
DA:366,4
DA:367,3
DA:368,3
DA:369,3
DA:370,3
DA:371,0
DA:373,0
DA:375,1
DA:376,1
DA:377,1
DA:378,4
DA:379,3
DA:380,1
DA:381,1
DA:382,1
DA:383,2
DA:384,1
DA:385,1
DA:386,1
DA:387,1
DA:389,0
DA:391,1
DA:393,1
DA:395,1
DA:396,1
DA:397,1
DA:398,1
DA:399,1
DA:400,1
DA:402,1
DA:403,1
DA:404,3
DA:405,2
DA:406,2
DA:407,2
DA:408,2
DA:409,0
DA:411,0
DA:413,1
DA:416,1
DA:417,1
DA:418,1
DA:419,1
DA:420,1
DA:421,1
DA:422,1
DA:423,1
DA:424,1
DA:425,1
DA:426,1
DA:427,1
DA:429,1
DA:431,0
DA:433,0
DA:434,0
DA:436,0
DA:437,0
DA:438,0
DA:439,0
DA:440,0
DA:441,0
DA:442,0
DA:443,0
DA:444,0
DA:445,0
DA:446,0
DA:449,3
DA:450,3
DA:451,3
DA:452,0
DA:455,3
DA:456,3
DA:457,0
DA:460,3
DA:461,3
DA:462,0
DA:465,3
DA:466,30
DA:467,30
DA:468,30
DA:471,30
DA:472,30
DA:473,30
DA:474,97
DA:475,30
DA:477,30
DA:479,30
DA:480,30
DA:481,30
DA:482,30
DA:483,30
DA:484,30
DA:485,3
DA:486,3
DA:488,1
DA:489,1
DA:490,1
DA:494,1
DA:495,1
DA:496,0
DA:499,1
DA:500,1
DA:501,0
DA:504,1
DA:505,0
DA:506,0
DA:507,0
DA:508,0
DA:509,0
DA:510,0
DA:511,0
DA:513,0
DA:515,0
DA:516,0
DA:517,1
DA:520,1
DA:521,1
DA:522,0
DA:525,1
DA:526,5
DA:527,5
DA:528,5
DA:529,5
DA:531,5
DA:532,5
DA:534,0
DA:537,5
DA:538,5
DA:540,5
DA:541,5
DA:542,5
DA:543,15
DA:544,5
DA:545,5
DA:546,5
DA:547,5
DA:549,5
DA:551,5
DA:552,5
DA:553,5
DA:554,5
DA:555,5
DA:556,5
DA:557,5
DA:558,1
DA:559,1
DA:561,0
DA:562,0
DA:563,0
DA:564,0
DA:565,0
DA:566,0
DA:567,0
DA:568,0
DA:569,0
DA:570,0
DA:571,0
DA:572,0
DA:573,0
DA:574,0
DA:575,0
DA:576,0
BRF:0
BRH:0
LF:406
LH:303
end_of_record
SF:/mnt/040b9fb6-50c4-4490-87c6-b7dd911435c9/Projects/rust/manga-vault/scrapers/mangaread_org/src/lib.rs
FN:7,_RNvCs9ZNVs5PYkvH_13mangaread_org13get_image_url
FN:232,_RNvXCs9ZNVs5PYkvH_13mangaread_orgNtB2_11ScraperImplNtNtNtNtNtB2_7exports7scraper5types7scraper5Guest12scrape_manga
FN:51,_RNvXCs9ZNVs5PYkvH_13mangaread_orgNtB2_11ScraperImplNtNtNtNtNtB2_7exports7scraper5types7scraper5Guest13scrape_latest
FN:172,_RNvXCs9ZNVs5PYkvH_13mangaread_orgNtB2_11ScraperImplNtNtNtNtNtB2_7exports7scraper5types7scraper5Guest13scrape_search
FN:28,_RNvXCs9ZNVs5PYkvH_13mangaread_orgNtB2_11ScraperImplNtNtNtNtNtB2_7exports7scraper5types7scraper5Guest14scrape_chapter
FN:112,_RNvXCs9ZNVs5PYkvH_13mangaread_orgNtB2_11ScraperImplNtNtNtNtNtB2_7exports7scraper5types7scraper5Guest15scrape_trending
FN:462,_RNvXCs9ZNVs5PYkvH_13mangaread_orgNtB2_11ScraperImplNtNtNtNtNtB2_7exports7scraper5types7scraper5Guest18scrape_genres_list
FN:492,_RNvXCs9ZNVs5PYkvH_13mangaread_orgNtB2_11ScraperImplNtNtNtNtNtB2_7exports7scraper5types7scraper5Guest8get_info
FN:302,_RNCNvXCs9ZNVs5PYkvH_13mangaread_orgNtB4_11ScraperImplNtNtNtNtNtB4_7exports7scraper5types7scraper5Guest12scrape_manga0B4_
FN:320,_RNCNvXCs9ZNVs5PYkvH_13mangaread_orgNtB4_11ScraperImplNtNtNtNtNtB4_7exports7scraper5types7scraper5Guest12scrape_mangas0_0B4_
FN:331,_RNCNvXCs9ZNVs5PYkvH_13mangaread_orgNtB4_11ScraperImplNtNtNtNtNtB4_7exports7scraper5types7scraper5Guest12scrape_mangas1_0B4_
FN:349,_RNCNvXCs9ZNVs5PYkvH_13mangaread_orgNtB4_11ScraperImplNtNtNtNtNtB4_7exports7scraper5types7scraper5Guest12scrape_mangas2_0B4_
FN:362,_RNCNvXCs9ZNVs5PYkvH_13mangaread_orgNtB4_11ScraperImplNtNtNtNtNtB4_7exports7scraper5types7scraper5Guest12scrape_mangas3_0B4_
FN:374,_RNCNvXCs9ZNVs5PYkvH_13mangaread_orgNtB4_11ScraperImplNtNtNtNtNtB4_7exports7scraper5types7scraper5Guest12scrape_mangas4_0B4_
FN:391,_RNCNvXCs9ZNVs5PYkvH_13mangaread_orgNtB4_11ScraperImplNtNtNtNtNtB4_7exports7scraper5types7scraper5Guest12scrape_mangas5_0B4_
FN:311,_RNCNvXCs9ZNVs5PYkvH_13mangaread_orgNtB4_11ScraperImplNtNtNtNtNtB4_7exports7scraper5types7scraper5Guest12scrape_mangas_0B4_
FN:479,_RNCNvXCs9ZNVs5PYkvH_13mangaread_orgNtB4_11ScraperImplNtNtNtNtNtB4_7exports7scraper5types7scraper5Guest18scrape_genres_list0B4_
FNDA:0,_RNvCs9ZNVs5PYkvH_13mangaread_org13get_image_url
FNDA:0,_RNvXCs9ZNVs5PYkvH_13mangaread_orgNtB2_11ScraperImplNtNtNtNtNtB2_7exports7scraper5types7scraper5Guest12scrape_manga
FNDA:0,_RNvXCs9ZNVs5PYkvH_13mangaread_orgNtB2_11ScraperImplNtNtNtNtNtB2_7exports7scraper5types7scraper5Guest13scrape_latest
FNDA:0,_RNvXCs9ZNVs5PYkvH_13mangaread_orgNtB2_11ScraperImplNtNtNtNtNtB2_7exports7scraper5types7scraper5Guest13scrape_search
FNDA:0,_RNvXCs9ZNVs5PYkvH_13mangaread_orgNtB2_11ScraperImplNtNtNtNtNtB2_7exports7scraper5types7scraper5Guest14scrape_chapter
FNDA:0,_RNvXCs9ZNVs5PYkvH_13mangaread_orgNtB2_11ScraperImplNtNtNtNtNtB2_7exports7scraper5types7scraper5Guest15scrape_trending
FNDA:0,_RNvXCs9ZNVs5PYkvH_13mangaread_orgNtB2_11ScraperImplNtNtNtNtNtB2_7exports7scraper5types7scraper5Guest18scrape_genres_list
FNDA:0,_RNvXCs9ZNVs5PYkvH_13mangaread_orgNtB2_11ScraperImplNtNtNtNtNtB2_7exports7scraper5types7scraper5Guest8get_info
FNDA:0,_RNCNvXCs9ZNVs5PYkvH_13mangaread_orgNtB4_11ScraperImplNtNtNtNtNtB4_7exports7scraper5types7scraper5Guest12scrape_manga0B4_
FNDA:0,_RNCNvXCs9ZNVs5PYkvH_13mangaread_orgNtB4_11ScraperImplNtNtNtNtNtB4_7exports7scraper5types7scraper5Guest12scrape_mangas0_0B4_
FNDA:0,_RNCNvXCs9ZNVs5PYkvH_13mangaread_orgNtB4_11ScraperImplNtNtNtNtNtB4_7exports7scraper5types7scraper5Guest12scrape_mangas1_0B4_
FNDA:0,_RNCNvXCs9ZNVs5PYkvH_13mangaread_orgNtB4_11ScraperImplNtNtNtNtNtB4_7exports7scraper5types7scraper5Guest12scrape_mangas2_0B4_
FNDA:0,_RNCNvXCs9ZNVs5PYkvH_13mangaread_orgNtB4_11ScraperImplNtNtNtNtNtB4_7exports7scraper5types7scraper5Guest12scrape_mangas3_0B4_
FNDA:0,_RNCNvXCs9ZNVs5PYkvH_13mangaread_orgNtB4_11ScraperImplNtNtNtNtNtB4_7exports7scraper5types7scraper5Guest12scrape_mangas4_0B4_
FNDA:0,_RNCNvXCs9ZNVs5PYkvH_13mangaread_orgNtB4_11ScraperImplNtNtNtNtNtB4_7exports7scraper5types7scraper5Guest12scrape_mangas5_0B4_
FNDA:0,_RNCNvXCs9ZNVs5PYkvH_13mangaread_orgNtB4_11ScraperImplNtNtNtNtNtB4_7exports7scraper5types7scraper5Guest12scrape_mangas_0B4_
FNDA:0,_RNCNvXCs9ZNVs5PYkvH_13mangaread_orgNtB4_11ScraperImplNtNtNtNtNtB4_7exports7scraper5types7scraper5Guest18scrape_genres_list0B4_
FNF:17
FNH:0
DA:7,0
DA:8,0
DA:10,0
DA:11,0
DA:12,0
DA:13,0
DA:14,0
DA:15,0
DA:16,0
DA:17,0
DA:19,0
DA:21,0
DA:28,0
DA:29,0
DA:30,0
DA:31,0
DA:34,0
DA:35,0
DA:36,0
DA:37,0
DA:39,0
DA:40,0
DA:41,0
DA:43,0
DA:44,0
DA:45,0
DA:46,0
DA:48,0
DA:49,0
DA:51,0
DA:52,0
DA:53,0
DA:57,0
DA:58,0
DA:59,0
DA:62,0
DA:63,0
DA:64,0
DA:65,0
DA:66,0
DA:68,0
DA:69,0
DA:70,0
DA:72,0
DA:73,0
DA:74,0
DA:75,0
DA:76,0
DA:77,0
DA:78,0
DA:79,0
DA:80,0
DA:81,0
DA:82,0
DA:83,0
DA:84,0
DA:85,0
DA:86,0
DA:87,0
DA:88,0
DA:89,0
DA:90,0
DA:91,0
DA:92,0
DA:93,0
DA:94,0
DA:95,0
DA:96,0
DA:97,0
DA:98,0
DA:99,0
DA:100,0
DA:101,0
DA:102,0
DA:103,0
DA:104,0
DA:105,0
DA:106,0
DA:109,0
DA:110,0
DA:112,0
DA:113,0
DA:114,0
DA:118,0
DA:119,0
DA:120,0
DA:123,0
DA:124,0
DA:125,0
DA:126,0
DA:127,0
DA:129,0
DA:130,0
DA:131,0
DA:133,0
DA:134,0
DA:135,0
DA:136,0
DA:137,0
DA:138,0
DA:139,0
DA:140,0
DA:141,0
DA:142,0
DA:143,0
DA:144,0
DA:145,0
DA:146,0
DA:147,0
DA:148,0
DA:149,0
DA:150,0
DA:151,0
DA:152,0
DA:153,0
DA:154,0
DA:155,0
DA:156,0
DA:157,0
DA:158,0
DA:159,0
DA:160,0
DA:161,0
DA:162,0
DA:163,0
DA:164,0
DA:165,0
DA:166,0
DA:169,0
DA:170,0
DA:172,0
DA:173,0
DA:174,0
DA:178,0
DA:179,0
DA:180,0
DA:183,0
DA:184,0
DA:185,0
DA:186,0
DA:187,0
DA:189,0
DA:190,0
DA:191,0
DA:193,0
DA:194,0
DA:195,0
DA:196,0
DA:197,0
DA:198,0
DA:199,0
DA:200,0
DA:201,0
DA:202,0
DA:203,0
DA:204,0
DA:205,0
DA:206,0
DA:207,0
DA:208,0
DA:209,0
DA:210,0
DA:211,0
DA:212,0
DA:213,0
DA:214,0
DA:215,0
DA:216,0
DA:217,0
DA:218,0
DA:219,0
DA:220,0
DA:221,0
DA:222,0
DA:223,0
DA:224,0
DA:225,0
DA:226,0
DA:229,0
DA:230,0
DA:232,0
DA:233,0
DA:234,0
DA:235,0
DA:236,0
DA:237,0
DA:238,0
DA:239,0
DA:240,0
DA:241,0
DA:242,0
DA:243,0
DA:244,0
DA:245,0
DA:246,0
DA:247,0
DA:248,0
DA:251,0
DA:252,0
DA:253,0
DA:254,0
DA:255,0
DA:256,0
DA:257,0
DA:258,0
DA:259,0
DA:260,0
DA:261,0
DA:262,0
DA:263,0
DA:264,0
DA:265,0
DA:266,0
DA:267,0
DA:268,0
DA:270,0
DA:272,0
DA:273,0
DA:274,0
DA:275,0
DA:276,0
DA:277,0
DA:278,0
DA:279,0
DA:280,0
DA:281,0
DA:283,0
DA:284,0
DA:286,0
DA:287,0
DA:288,0
DA:289,0
DA:290,0
DA:291,0
DA:292,0
DA:293,0
DA:294,0
DA:295,0
DA:296,0
DA:298,0
DA:299,0
DA:300,0
DA:301,0
DA:302,0
DA:303,0
DA:304,0
DA:305,0
DA:306,0
DA:308,0
DA:309,0
DA:310,0
DA:311,0
DA:312,0
DA:313,0
DA:314,0
DA:315,0
DA:317,0
DA:318,0
DA:319,0
DA:320,0
DA:321,0
DA:322,0
DA:323,0
DA:324,0
DA:326,0
DA:327,0
DA:328,0
DA:329,0
DA:330,0
DA:331,0
DA:332,0
DA:333,0
DA:334,0
DA:335,0
DA:336,0
DA:337,0
DA:338,0
DA:339,0
DA:340,0
DA:341,0
DA:342,0
DA:343,0
DA:344,0
DA:345,0
DA:346,0
DA:347,0
DA:348,0
DA:349,0
DA:350,0
DA:353,0
DA:354,0
DA:355,0
DA:356,0
DA:357,0
DA:358,0
DA:359,0
DA:360,0
DA:361,0
DA:362,0
DA:363,0
DA:364,0
DA:367,0
DA:368,0
DA:369,0
DA:370,0
DA:371,0
DA:372,0
DA:373,0
DA:374,0
DA:375,0
DA:376,0
DA:377,0
DA:378,0
DA:379,0
DA:380,0
DA:381,0
DA:382,0
DA:383,0
DA:384,0
DA:385,0
DA:386,0
DA:387,0
DA:388,0
DA:389,0
DA:390,0
DA:391,0
DA:392,0
DA:393,0
DA:394,0
DA:395,0
DA:396,0
DA:397,0
DA:398,0
DA:399,0
DA:400,0
DA:401,0
DA:402,0
DA:403,0
DA:404,0
DA:405,0
DA:408,0
DA:409,0
DA:410,0
DA:411,0
DA:412,0
DA:413,0
DA:414,0
DA:415,0
DA:416,0
DA:417,0
DA:419,0
DA:420,0
DA:421,0
DA:422,0
DA:424,0
DA:426,0
DA:427,0
DA:428,0
DA:430,0
DA:432,0
DA:433,0
DA:435,0
DA:438,0
DA:439,0
DA:440,0
DA:441,0
DA:442,0
DA:443,0
DA:446,0
DA:447,0
DA:448,0
DA:449,0
DA:450,0
DA:451,0
DA:452,0
DA:453,0
DA:454,0
DA:455,0
DA:456,0
DA:457,0
DA:458,0
DA:459,0
DA:460,0
DA:462,0
DA:463,0
DA:464,0
DA:465,0
DA:466,0
DA:469,0
DA:470,0
DA:471,0
DA:472,0
DA:473,0
DA:475,0
DA:476,0
DA:477,0
DA:478,0
DA:479,0
DA:480,0
DA:481,0
DA:482,0
DA:483,0
DA:484,0
DA:485,0
DA:486,0
DA:487,0
DA:489,0
DA:490,0
DA:492,0
DA:493,0
DA:494,0
DA:495,0
DA:496,0
DA:497,0
DA:498,0
DA:499,0
DA:500,0
DA:501,0
DA:502,0
BRF:0
BRH:0
LF:428
LH:0
end_of_record
SF:/mnt/040b9fb6-50c4-4490-87c6-b7dd911435c9/Projects/rust/manga-vault/scrapers/scraper_core/src/files.rs
FN:14,_RINvNtCsbhzFdUIifu6_12scraper_core5files14read_directoryppEB4_
FN:26,_RNCINvNtCsbhzFdUIifu6_12scraper_core5files14read_directoryppE0B6_
FN:31,_RNCNCINvNtCsbhzFdUIifu6_12scraper_core5files14read_directoryppE00B8_
FN:36,_RNCNCINvNtCsbhzFdUIifu6_12scraper_core5files14read_directoryppE0s_0B8_
FN:82,_RNCNCNvNtCsbhzFdUIifu6_12scraper_core5files16load_plugin_file00B7_
FN:237,_RNCNCNvNtCsbhzFdUIifu6_12scraper_core5files19process_plugin_file00B7_
FN:214,_RNCNCNvNtCsbhzFdUIifu6_12scraper_core5files20handle_removal_event00B7_
FN:216,_RNCNCNvNtCsbhzFdUIifu6_12scraper_core5files20handle_removal_event0s_0B7_
FN:53,_RNCNCNvNtCsbhzFdUIifu6_12scraper_core5files22remove_existing_plugin00B7_
FN:122,_RNCNCNvNtCsbhzFdUIifu6_12scraper_core5files25handle_modification_event00B7_
FN:163,_RNCNCNvNtCsbhzFdUIifu6_12scraper_core5files25handle_modification_event0s0_0B7_
FN:138,_RNCNCNvNtCsbhzFdUIifu6_12scraper_core5files25handle_modification_event0s_0B7_
FN:65,_RNCNvNtCsbhzFdUIifu6_12scraper_core5files16load_plugin_file0B5_
FN:101,_RNCNvNtCsbhzFdUIifu6_12scraper_core5files19handle_single_event0B5_
FN:233,_RNCNvNtCsbhzFdUIifu6_12scraper_core5files19process_plugin_file0B5_
FN:212,_RNCNvNtCsbhzFdUIifu6_12scraper_core5files20handle_removal_event0B5_
FN:51,_RNCNvNtCsbhzFdUIifu6_12scraper_core5files22remove_existing_plugin0B5_
FN:116,_RNCNvNtCsbhzFdUIifu6_12scraper_core5files25handle_modification_event0B5_
FN:60,_RNvNtCsbhzFdUIifu6_12scraper_core5files16load_plugin_file
FN:96,_RNvNtCsbhzFdUIifu6_12scraper_core5files19handle_single_event
FN:228,_RNvNtCsbhzFdUIifu6_12scraper_core5files19process_plugin_file
FN:212,_RNvNtCsbhzFdUIifu6_12scraper_core5files20handle_removal_event
FN:51,_RNvNtCsbhzFdUIifu6_12scraper_core5files22remove_existing_plugin
FN:111,_RNvNtCsbhzFdUIifu6_12scraper_core5files25handle_modification_event
FNDA:0,_RINvNtCsbhzFdUIifu6_12scraper_core5files14read_directoryppEB4_
FNDA:0,_RNCINvNtCsbhzFdUIifu6_12scraper_core5files14read_directoryppE0B6_
FNDA:0,_RNCNCINvNtCsbhzFdUIifu6_12scraper_core5files14read_directoryppE00B8_
FNDA:0,_RNCNCINvNtCsbhzFdUIifu6_12scraper_core5files14read_directoryppE0s_0B8_
FNDA:0,_RNCNCNvNtCsbhzFdUIifu6_12scraper_core5files16load_plugin_file00B7_
FNDA:0,_RNCNCNvNtCsbhzFdUIifu6_12scraper_core5files19process_plugin_file00B7_
FNDA:0,_RNCNCNvNtCsbhzFdUIifu6_12scraper_core5files20handle_removal_event00B7_
FNDA:0,_RNCNCNvNtCsbhzFdUIifu6_12scraper_core5files20handle_removal_event0s_0B7_
FNDA:0,_RNCNCNvNtCsbhzFdUIifu6_12scraper_core5files22remove_existing_plugin00B7_
FNDA:0,_RNCNCNvNtCsbhzFdUIifu6_12scraper_core5files25handle_modification_event00B7_
FNDA:0,_RNCNCNvNtCsbhzFdUIifu6_12scraper_core5files25handle_modification_event0s0_0B7_
FNDA:0,_RNCNCNvNtCsbhzFdUIifu6_12scraper_core5files25handle_modification_event0s_0B7_
FNDA:0,_RNCNvNtCsbhzFdUIifu6_12scraper_core5files16load_plugin_file0B5_
FNDA:0,_RNCNvNtCsbhzFdUIifu6_12scraper_core5files19handle_single_event0B5_
FNDA:0,_RNCNvNtCsbhzFdUIifu6_12scraper_core5files19process_plugin_file0B5_
FNDA:0,_RNCNvNtCsbhzFdUIifu6_12scraper_core5files20handle_removal_event0B5_
FNDA:0,_RNCNvNtCsbhzFdUIifu6_12scraper_core5files22remove_existing_plugin0B5_
FNDA:0,_RNCNvNtCsbhzFdUIifu6_12scraper_core5files25handle_modification_event0B5_
FNDA:0,_RNvNtCsbhzFdUIifu6_12scraper_core5files16load_plugin_file
FNDA:0,_RNvNtCsbhzFdUIifu6_12scraper_core5files19handle_single_event
FNDA:0,_RNvNtCsbhzFdUIifu6_12scraper_core5files19process_plugin_file
FNDA:0,_RNvNtCsbhzFdUIifu6_12scraper_core5files20handle_removal_event
FNDA:0,_RNvNtCsbhzFdUIifu6_12scraper_core5files22remove_existing_plugin
FNDA:0,_RNvNtCsbhzFdUIifu6_12scraper_core5files25handle_modification_event
FNF:24
FNH:0
DA:14,0
DA:15,0
DA:16,0
DA:17,0
DA:18,0
DA:19,0
DA:20,0
DA:21,0
DA:23,0
DA:24,0
DA:26,0
DA:27,0
DA:29,0
DA:30,0
DA:31,0
DA:33,0
DA:34,0
DA:35,0
DA:36,0
DA:38,0
DA:40,0
DA:41,0
DA:42,0
DA:43,0
DA:44,0
DA:47,0
DA:48,0
DA:49,0
DA:51,0
DA:52,0
DA:53,0
DA:54,0
DA:55,0
DA:56,0
DA:57,0
DA:58,0
DA:60,0
DA:61,0
DA:62,0
DA:63,0
DA:64,0
DA:65,0
DA:66,0
DA:68,0
DA:70,0
DA:72,0
DA:74,0
DA:75,0
DA:76,0
DA:77,0
DA:80,0
DA:81,0
DA:82,0
DA:84,0
DA:86,0
DA:87,0
DA:88,0
DA:89,0
DA:93,0
DA:94,0
DA:96,0
DA:97,0
DA:98,0
DA:99,0
DA:100,0
DA:101,0
DA:102,0
DA:104,0
DA:106,0
DA:107,0
DA:109,0
DA:111,0
DA:112,0
DA:113,0
DA:114,0
DA:115,0
DA:116,0
DA:121,0
DA:122,0
DA:123,0
DA:125,0
DA:126,0
DA:127,0
DA:129,0
DA:130,0
DA:132,0
DA:135,0
DA:136,0
DA:137,0
DA:138,0
DA:141,0
DA:143,0
DA:144,0
DA:145,0
DA:146,0
DA:147,0
DA:148,0
DA:150,0
DA:151,0
DA:152,0
DA:156,0
DA:157,0
DA:158,0
DA:159,0
DA:160,0
DA:161,0
DA:163,0
DA:164,0
DA:165,0
DA:167,0
DA:168,0
DA:169,0
DA:170,0
DA:171,0
DA:172,0
DA:173,0
DA:174,0
DA:176,0
DA:178,0
DA:179,0
DA:181,0
DA:182,0
DA:183,0
DA:184,0
DA:185,0
DA:186,0
DA:189,0
DA:190,0
DA:192,0
DA:198,0
DA:199,0
DA:200,0
DA:201,0
DA:202,0
DA:203,0
DA:204,0
DA:205,0
DA:206,0
DA:207,0
DA:208,0
DA:210,0
DA:212,0
DA:213,0
DA:214,0
DA:215,0
DA:216,0
DA:217,0
DA:218,0
DA:219,0
DA:220,0
DA:222,0
DA:223,0
DA:224,0
DA:226,0
DA:228,0
DA:229,0
DA:230,0
DA:231,0
DA:232,0
DA:233,0
DA:234,0
DA:235,0
DA:236,0
DA:237,0
DA:238,0
DA:239,0
DA:240,0
BRF:0
BRH:0
LF:182
LH:0
end_of_record
SF:/mnt/040b9fb6-50c4-4490-87c6-b7dd911435c9/Projects/rust/manga-vault/scrapers/scraper_core/src/lib.rs
FN:133,_RNCNCNCNCNvMs_CsbhzFdUIifu6_12scraper_coreNtBc_14ScraperManager20load_initial_plugins0000Bc_
FN:132,_RNCNCNCNvMs_CsbhzFdUIifu6_12scraper_coreNtBa_14ScraperManager20load_initial_plugins000Ba_
FN:129,_RNCNCNvMs_CsbhzFdUIifu6_12scraper_coreNtB8_14ScraperManager20load_initial_plugins00B8_
FN:193,_RNCNvMs_CsbhzFdUIifu6_12scraper_coreNtB6_14ScraperManager10get_plugin0B6_
FN:101,_RNCNvMs_CsbhzFdUIifu6_12scraper_coreNtB6_14ScraperManager10initialize0B6_
FN:189,_RNCNvMs_CsbhzFdUIifu6_12scraper_coreNtB6_14ScraperManager11get_plugins0B6_
FN:162,_RNCNvMs_CsbhzFdUIifu6_12scraper_coreNtB6_14ScraperManager18start_file_watcher0B6_
FN:177,_RNCNvMs_CsbhzFdUIifu6_12scraper_coreNtB6_14ScraperManager18start_file_watchers_0B6_
FN:124,_RNCNvMs_CsbhzFdUIifu6_12scraper_coreNtB6_14ScraperManager20load_initial_plugins0B6_
FN:119,_RNCNvMs_CsbhzFdUIifu6_12scraper_coreNtB6_14ScraperManager23setup_plugins_directory0B6_
FN:76,_RNCNvMs_CsbhzFdUIifu6_12scraper_coreNtB6_14ScraperManager3new0B6_
FN:193,_RNvMs_CsbhzFdUIifu6_12scraper_coreNtB4_14ScraperManager10get_plugin
FN:101,_RNvMs_CsbhzFdUIifu6_12scraper_coreNtB4_14ScraperManager10initialize
FN:189,_RNvMs_CsbhzFdUIifu6_12scraper_coreNtB4_14ScraperManager11get_plugins
FN:153,_RNvMs_CsbhzFdUIifu6_12scraper_coreNtB4_14ScraperManager18start_file_watcher
FN:124,_RNvMs_CsbhzFdUIifu6_12scraper_coreNtB4_14ScraperManager20load_initial_plugins
FN:114,_RNvMs_CsbhzFdUIifu6_12scraper_coreNtB4_14ScraperManager23setup_plugins_directory
FN:76,_RNvMs_CsbhzFdUIifu6_12scraper_coreNtB4_14ScraperManager3new
FN:18,_RNvCsbhzFdUIifu6_12scraper_core22current_exe_parent_dir
FN:47,_RNvXCsbhzFdUIifu6_12scraper_coreNtB2_6ConfigNtNtCs9bgXZFP4km6_4core7default7Default7default
FNDA:0,_RNCNCNCNCNvMs_CsbhzFdUIifu6_12scraper_coreNtBc_14ScraperManager20load_initial_plugins0000Bc_
FNDA:0,_RNCNCNCNvMs_CsbhzFdUIifu6_12scraper_coreNtBa_14ScraperManager20load_initial_plugins000Ba_
FNDA:0,_RNCNCNvMs_CsbhzFdUIifu6_12scraper_coreNtB8_14ScraperManager20load_initial_plugins00B8_
FNDA:0,_RNCNvMs_CsbhzFdUIifu6_12scraper_coreNtB6_14ScraperManager10get_plugin0B6_
FNDA:0,_RNCNvMs_CsbhzFdUIifu6_12scraper_coreNtB6_14ScraperManager10initialize0B6_
FNDA:0,_RNCNvMs_CsbhzFdUIifu6_12scraper_coreNtB6_14ScraperManager11get_plugins0B6_
FNDA:0,_RNCNvMs_CsbhzFdUIifu6_12scraper_coreNtB6_14ScraperManager18start_file_watcher0B6_
FNDA:0,_RNCNvMs_CsbhzFdUIifu6_12scraper_coreNtB6_14ScraperManager18start_file_watchers_0B6_
FNDA:0,_RNCNvMs_CsbhzFdUIifu6_12scraper_coreNtB6_14ScraperManager20load_initial_plugins0B6_
FNDA:0,_RNCNvMs_CsbhzFdUIifu6_12scraper_coreNtB6_14ScraperManager23setup_plugins_directory0B6_
FNDA:0,_RNCNvMs_CsbhzFdUIifu6_12scraper_coreNtB6_14ScraperManager3new0B6_
FNDA:0,_RNvMs_CsbhzFdUIifu6_12scraper_coreNtB4_14ScraperManager10get_plugin
FNDA:0,_RNvMs_CsbhzFdUIifu6_12scraper_coreNtB4_14ScraperManager10initialize
FNDA:0,_RNvMs_CsbhzFdUIifu6_12scraper_coreNtB4_14ScraperManager11get_plugins
FNDA:0,_RNvMs_CsbhzFdUIifu6_12scraper_coreNtB4_14ScraperManager18start_file_watcher
FNDA:0,_RNvMs_CsbhzFdUIifu6_12scraper_coreNtB4_14ScraperManager20load_initial_plugins
FNDA:0,_RNvMs_CsbhzFdUIifu6_12scraper_coreNtB4_14ScraperManager23setup_plugins_directory
FNDA:0,_RNvMs_CsbhzFdUIifu6_12scraper_coreNtB4_14ScraperManager3new
FNDA:1,_RNvCsbhzFdUIifu6_12scraper_core22current_exe_parent_dir
FNDA:1,_RNvXCsbhzFdUIifu6_12scraper_coreNtB2_6ConfigNtNtCs9bgXZFP4km6_4core7default7Default7default
FNF:20
FNH:2
DA:18,1
DA:19,1
DA:20,1
DA:21,1
DA:22,1
DA:23,1
DA:24,1
DA:47,1
DA:48,1
DA:49,1
DA:50,1
DA:51,1
DA:52,1
DA:53,1
DA:54,1
DA:76,0
DA:77,0
DA:78,0
DA:79,0
DA:80,0
DA:81,0
DA:82,0
DA:83,0
DA:84,0
DA:86,0
DA:87,0
DA:88,0
DA:90,0
DA:91,0
DA:92,0
DA:93,0
DA:94,0
DA:95,0
DA:97,0
DA:98,0
DA:99,0
DA:101,0
DA:102,0
DA:103,0
DA:105,0
DA:106,0
DA:107,0
DA:108,0
DA:110,0
DA:111,0
DA:112,0
DA:114,0
DA:115,0
DA:116,0
DA:117,0
DA:118,0
DA:119,0
DA:120,0
DA:121,0
DA:122,0
DA:124,0
DA:125,0
DA:126,0
DA:127,0
DA:129,0
DA:130,0
DA:131,0
DA:132,0
DA:133,0
DA:134,0
DA:137,0
DA:138,0
DA:140,0
DA:141,0
DA:142,0
DA:144,0
DA:145,0
DA:146,0
DA:147,0
DA:148,0
DA:150,0
DA:151,0
DA:153,0
DA:154,0
DA:155,0
DA:156,0
DA:158,0
DA:160,0
DA:161,0
DA:162,0
DA:163,0
DA:164,0
DA:165,0
DA:167,0
DA:168,0
DA:169,0
DA:171,0
DA:172,0
DA:173,0
DA:174,0
DA:176,0
DA:177,0
DA:178,0
DA:179,0
DA:180,0
DA:181,0
DA:184,0
DA:186,0
DA:187,0
DA:189,0
DA:190,0
DA:191,0
DA:193,0
DA:194,0
DA:195,0
BRF:0
BRH:0
LF:121
LH:15
end_of_record
SF:/mnt/040b9fb6-50c4-4490-87c6-b7dd911435c9/Projects/rust/manga-vault/scrapers/scraper_core/src/plugins/common/flare_solverr.rs
FN:80,_RNCNCNvMNtNtNtCsbhzFdUIifu6_12scraper_core7plugins6common13flare_solverrNtB6_19FlareSolverrManager3get00Bc_
FN:123,_RNCNCNvMNtNtNtCsbhzFdUIifu6_12scraper_core7plugins6common13flare_solverrNtB6_19FlareSolverrManager3get0s0_0Bc_
FN:98,_RNCNCNvMNtNtNtCsbhzFdUIifu6_12scraper_core7plugins6common13flare_solverrNtB6_19FlareSolverrManager3get0s_0Bc_
FN:54,_RNCNvMNtNtNtCsbhzFdUIifu6_12scraper_core7plugins6common13flare_solverrNtB4_19FlareSolverrManager14create_session0Ba_
FN:62,_RNCNvMNtNtNtCsbhzFdUIifu6_12scraper_core7plugins6common13flare_solverrNtB4_19FlareSolverrManager14ensure_session0Ba_
FN:74,_RNCNvMNtNtNtCsbhzFdUIifu6_12scraper_core7plugins6common13flare_solverrNtB4_19FlareSolverrManager3get0Ba_
FN:35,_RNCNvMNtNtNtCsbhzFdUIifu6_12scraper_core7plugins6common13flare_solverrNtB4_19FlareSolverrManager3new0Ba_
FN:45,_RNvMNtNtNtCsbhzFdUIifu6_12scraper_core7plugins6common13flare_solverrNtB2_19FlareSolverrManager14create_session
FN:60,_RNvMNtNtNtCsbhzFdUIifu6_12scraper_core7plugins6common13flare_solverrNtB2_19FlareSolverrManager14ensure_session
FN:70,_RNvMNtNtNtCsbhzFdUIifu6_12scraper_core7plugins6common13flare_solverrNtB2_19FlareSolverrManager3get
FN:34,_RNvMNtNtNtCsbhzFdUIifu6_12scraper_core7plugins6common13flare_solverrNtB2_19FlareSolverrManager3new
FNDA:0,_RNCNCNvMNtNtNtCsbhzFdUIifu6_12scraper_core7plugins6common13flare_solverrNtB6_19FlareSolverrManager3get00Bc_
FNDA:0,_RNCNCNvMNtNtNtCsbhzFdUIifu6_12scraper_core7plugins6common13flare_solverrNtB6_19FlareSolverrManager3get0s0_0Bc_
FNDA:1,_RNCNCNvMNtNtNtCsbhzFdUIifu6_12scraper_core7plugins6common13flare_solverrNtB6_19FlareSolverrManager3get0s_0Bc_
FNDA:0,_RNCNvMNtNtNtCsbhzFdUIifu6_12scraper_core7plugins6common13flare_solverrNtB4_19FlareSolverrManager14create_session0Ba_
FNDA:0,_RNCNvMNtNtNtCsbhzFdUIifu6_12scraper_core7plugins6common13flare_solverrNtB4_19FlareSolverrManager14ensure_session0Ba_
FNDA:1,_RNCNvMNtNtNtCsbhzFdUIifu6_12scraper_core7plugins6common13flare_solverrNtB4_19FlareSolverrManager3get0Ba_
FNDA:0,_RNCNvMNtNtNtCsbhzFdUIifu6_12scraper_core7plugins6common13flare_solverrNtB4_19FlareSolverrManager3new0Ba_
FNDA:1,_RNvMNtNtNtCsbhzFdUIifu6_12scraper_core7plugins6common13flare_solverrNtB2_19FlareSolverrManager14create_session
FNDA:1,_RNvMNtNtNtCsbhzFdUIifu6_12scraper_core7plugins6common13flare_solverrNtB2_19FlareSolverrManager14ensure_session
FNDA:1,_RNvMNtNtNtCsbhzFdUIifu6_12scraper_core7plugins6common13flare_solverrNtB2_19FlareSolverrManager3get
FNDA:1,_RNvMNtNtNtCsbhzFdUIifu6_12scraper_core7plugins6common13flare_solverrNtB2_19FlareSolverrManager3new
FNF:11
FNH:6
DA:34,1
DA:35,1
DA:37,1
DA:38,1
DA:39,1
DA:40,1
DA:41,1
DA:42,1
DA:43,1
DA:45,1
DA:46,1
DA:47,1
DA:48,1
DA:49,1
DA:50,1
DA:52,1
DA:53,1
DA:54,1
DA:55,1
DA:57,1
DA:58,1
DA:60,1
DA:61,1
DA:62,0
DA:63,0
DA:64,0
DA:65,0
DA:66,1
DA:67,1
DA:68,1
DA:70,1
DA:71,1
DA:72,1
DA:73,1
DA:74,1
DA:75,1
DA:76,0
DA:77,0
DA:78,0
DA:79,0
DA:80,0
DA:81,0
DA:82,1
DA:84,1
DA:86,1
DA:87,1
DA:88,1
DA:89,1
DA:90,1
DA:93,1
DA:94,1
DA:95,1
DA:96,1
DA:97,1
DA:98,1
DA:99,1
DA:100,1
DA:101,1
DA:102,1
DA:103,1
DA:104,0
DA:105,0
DA:107,0
DA:108,0
DA:109,0
DA:110,0
DA:111,0
DA:112,0
DA:114,0
DA:115,0
DA:119,0
DA:120,0
DA:121,0
DA:122,0
DA:123,0
DA:124,0
DA:125,1
BRF:0
BRH:0
LF:84
LH:53
end_of_record
SF:/mnt/040b9fb6-50c4-4490-87c6-b7dd911435c9/Projects/rust/manga-vault/scrapers/scraper_core/src/plugins/common/headless.rs
FN:137,_RNCNCNvMs1_NtNtNtCsbhzFdUIifu6_12scraper_core7plugins6common8headlessNtB9_13DummyHeadless3get00Bf_
FN:148,_RNCNCNvMs1_NtNtNtCsbhzFdUIifu6_12scraper_core7plugins6common8headlessNtB9_13DummyHeadless4find00Bf_
FN:161,_RNCNCNvMs1_NtNtNtCsbhzFdUIifu6_12scraper_core7plugins6common8headlessNtB9_13DummyHeadless8find_all00Bf_
FN:132,_RNCNvMs1_NtNtNtCsbhzFdUIifu6_12scraper_core7plugins6common8headlessNtB7_13DummyHeadless3get0Bd_
FN:142,_RNCNvMs1_NtNtNtCsbhzFdUIifu6_12scraper_core7plugins6common8headlessNtB7_13DummyHeadless4find0Bd_
FN:168,_RNCNvMs1_NtNtNtCsbhzFdUIifu6_12scraper_core7plugins6common8headlessNtB7_13DummyHeadless5close0Bd_
FN:155,_RNCNvMs1_NtNtNtCsbhzFdUIifu6_12scraper_core7plugins6common8headlessNtB7_13DummyHeadless8find_all0Bd_
FN:123,_RNvMs0_NtNtNtCsbhzFdUIifu6_12scraper_core7plugins6common8headlessNtB5_13DummyHeadless3new
FN:132,_RNvMs1_NtNtNtCsbhzFdUIifu6_12scraper_core7plugins6common8headlessNtB5_13DummyHeadless3get
FN:142,_RNvMs1_NtNtNtCsbhzFdUIifu6_12scraper_core7plugins6common8headlessNtB5_13DummyHeadless4find
FN:168,_RNvMs1_NtNtNtCsbhzFdUIifu6_12scraper_core7plugins6common8headlessNtB5_13DummyHeadless5close
FN:155,_RNvMs1_NtNtNtCsbhzFdUIifu6_12scraper_core7plugins6common8headlessNtB5_13DummyHeadless8find_all
FN:28,_RNvMNtNtNtCsbhzFdUIifu6_12scraper_core7plugins6common8headlessNtB2_14HeadlessClient3get
FN:24,_RNvMNtNtNtCsbhzFdUIifu6_12scraper_core7plugins6common8headlessNtB2_14HeadlessClient3new
FN:44,_RNvMNtNtNtCsbhzFdUIifu6_12scraper_core7plugins6common8headlessNtB2_14HeadlessClient4find
FN:77,_RNvMNtNtNtCsbhzFdUIifu6_12scraper_core7plugins6common8headlessNtB2_14HeadlessClient5close
FN:64,_RNvMNtNtNtCsbhzFdUIifu6_12scraper_core7plugins6common8headlessNtB2_14HeadlessClient8find_all
FN:105,_RNvMs_NtNtNtCsbhzFdUIifu6_12scraper_core7plugins6common8headlessNtB4_7Element4text
FN:94,_RNvMs_NtNtNtCsbhzFdUIifu6_12scraper_core7plugins6common8headlessNtB4_7Element5click
FN:33,_RNCNCNvMNtNtNtCsbhzFdUIifu6_12scraper_core7plugins6common8headlessNtB6_14HeadlessClient3get00Bc_
FN:39,_RNCNCNvMNtNtNtCsbhzFdUIifu6_12scraper_core7plugins6common8headlessNtB6_14HeadlessClient3get0s_0Bc_
FN:83,_RNCNCNvMNtNtNtCsbhzFdUIifu6_12scraper_core7plugins6common8headlessNtB6_14HeadlessClient5close0s_0Bc_
FN:69,_RNCNCNvMNtNtNtCsbhzFdUIifu6_12scraper_core7plugins6common8headlessNtB6_14HeadlessClient8find_all00Bc_
FN:72,_RNCNCNvMNtNtNtCsbhzFdUIifu6_12scraper_core7plugins6common8headlessNtB6_14HeadlessClient8find_all0s0_0Bc_
FN:70,_RNCNCNvMNtNtNtCsbhzFdUIifu6_12scraper_core7plugins6common8headlessNtB6_14HeadlessClient8find_all0s_0Bc_
FN:111,_RNCNCNvMs_NtNtNtCsbhzFdUIifu6_12scraper_core7plugins6common8headlessNtB8_7Element4text0s_0Be_
FN:100,_RNCNCNvMs_NtNtNtCsbhzFdUIifu6_12scraper_core7plugins6common8headlessNtB8_7Element5click0s_0Be_
FN:28,_RNCNvMNtNtNtCsbhzFdUIifu6_12scraper_core7plugins6common8headlessNtB4_14HeadlessClient3get0Ba_
FN:44,_RNCNvMNtNtNtCsbhzFdUIifu6_12scraper_core7plugins6common8headlessNtB4_14HeadlessClient4find0Ba_
FN:77,_RNCNvMNtNtNtCsbhzFdUIifu6_12scraper_core7plugins6common8headlessNtB4_14HeadlessClient5close0Ba_
FN:64,_RNCNvMNtNtNtCsbhzFdUIifu6_12scraper_core7plugins6common8headlessNtB4_14HeadlessClient8find_all0Ba_
FN:105,_RNCNvMs_NtNtNtCsbhzFdUIifu6_12scraper_core7plugins6common8headlessNtB6_7Element4text0Bc_
FN:94,_RNCNvMs_NtNtNtCsbhzFdUIifu6_12scraper_core7plugins6common8headlessNtB6_7Element5click0Bc_
FNDA:0,_RNCNCNvMs1_NtNtNtCsbhzFdUIifu6_12scraper_core7plugins6common8headlessNtB9_13DummyHeadless3get00Bf_
FNDA:0,_RNCNCNvMs1_NtNtNtCsbhzFdUIifu6_12scraper_core7plugins6common8headlessNtB9_13DummyHeadless4find00Bf_
FNDA:0,_RNCNCNvMs1_NtNtNtCsbhzFdUIifu6_12scraper_core7plugins6common8headlessNtB9_13DummyHeadless8find_all00Bf_
FNDA:0,_RNCNvMs1_NtNtNtCsbhzFdUIifu6_12scraper_core7plugins6common8headlessNtB7_13DummyHeadless3get0Bd_
FNDA:0,_RNCNvMs1_NtNtNtCsbhzFdUIifu6_12scraper_core7plugins6common8headlessNtB7_13DummyHeadless4find0Bd_
FNDA:0,_RNCNvMs1_NtNtNtCsbhzFdUIifu6_12scraper_core7plugins6common8headlessNtB7_13DummyHeadless5close0Bd_
FNDA:0,_RNCNvMs1_NtNtNtCsbhzFdUIifu6_12scraper_core7plugins6common8headlessNtB7_13DummyHeadless8find_all0Bd_
FNDA:0,_RNvMs0_NtNtNtCsbhzFdUIifu6_12scraper_core7plugins6common8headlessNtB5_13DummyHeadless3new
FNDA:0,_RNvMs1_NtNtNtCsbhzFdUIifu6_12scraper_core7plugins6common8headlessNtB5_13DummyHeadless3get
FNDA:0,_RNvMs1_NtNtNtCsbhzFdUIifu6_12scraper_core7plugins6common8headlessNtB5_13DummyHeadless4find
FNDA:0,_RNvMs1_NtNtNtCsbhzFdUIifu6_12scraper_core7plugins6common8headlessNtB5_13DummyHeadless5close
FNDA:0,_RNvMs1_NtNtNtCsbhzFdUIifu6_12scraper_core7plugins6common8headlessNtB5_13DummyHeadless8find_all
FNDA:5,_RNvMNtNtNtCsbhzFdUIifu6_12scraper_core7plugins6common8headlessNtB2_14HeadlessClient3get
FNDA:6,_RNvMNtNtNtCsbhzFdUIifu6_12scraper_core7plugins6common8headlessNtB2_14HeadlessClient3new
FNDA:3,_RNvMNtNtNtCsbhzFdUIifu6_12scraper_core7plugins6common8headlessNtB2_14HeadlessClient4find
FNDA:1,_RNvMNtNtNtCsbhzFdUIifu6_12scraper_core7plugins6common8headlessNtB2_14HeadlessClient5close
FNDA:1,_RNvMNtNtNtCsbhzFdUIifu6_12scraper_core7plugins6common8headlessNtB2_14HeadlessClient8find_all
FNDA:1,_RNvMs_NtNtNtCsbhzFdUIifu6_12scraper_core7plugins6common8headlessNtB4_7Element4text
FNDA:1,_RNvMs_NtNtNtCsbhzFdUIifu6_12scraper_core7plugins6common8headlessNtB4_7Element5click
FNDA:0,_RNCNCNvMNtNtNtCsbhzFdUIifu6_12scraper_core7plugins6common8headlessNtB6_14HeadlessClient3get00Bc_
FNDA:0,_RNCNCNvMNtNtNtCsbhzFdUIifu6_12scraper_core7plugins6common8headlessNtB6_14HeadlessClient3get0s_0Bc_
FNDA:0,_RNCNCNvMNtNtNtCsbhzFdUIifu6_12scraper_core7plugins6common8headlessNtB6_14HeadlessClient5close0s_0Bc_
FNDA:0,_RNCNCNvMNtNtNtCsbhzFdUIifu6_12scraper_core7plugins6common8headlessNtB6_14HeadlessClient8find_all00Bc_
FNDA:10,_RNCNCNvMNtNtNtCsbhzFdUIifu6_12scraper_core7plugins6common8headlessNtB6_14HeadlessClient8find_all0s0_0Bc_
FNDA:0,_RNCNCNvMNtNtNtCsbhzFdUIifu6_12scraper_core7plugins6common8headlessNtB6_14HeadlessClient8find_all0s_0Bc_
FNDA:0,_RNCNCNvMs_NtNtNtCsbhzFdUIifu6_12scraper_core7plugins6common8headlessNtB8_7Element4text0s_0Be_
FNDA:0,_RNCNCNvMs_NtNtNtCsbhzFdUIifu6_12scraper_core7plugins6common8headlessNtB8_7Element5click0s_0Be_
FNDA:5,_RNCNvMNtNtNtCsbhzFdUIifu6_12scraper_core7plugins6common8headlessNtB4_14HeadlessClient3get0Ba_
FNDA:3,_RNCNvMNtNtNtCsbhzFdUIifu6_12scraper_core7plugins6common8headlessNtB4_14HeadlessClient4find0Ba_
FNDA:1,_RNCNvMNtNtNtCsbhzFdUIifu6_12scraper_core7plugins6common8headlessNtB4_14HeadlessClient5close0Ba_
FNDA:1,_RNCNvMNtNtNtCsbhzFdUIifu6_12scraper_core7plugins6common8headlessNtB4_14HeadlessClient8find_all0Ba_
FNDA:1,_RNCNvMs_NtNtNtCsbhzFdUIifu6_12scraper_core7plugins6common8headlessNtB6_7Element4text0Bc_
FNDA:1,_RNCNvMs_NtNtNtCsbhzFdUIifu6_12scraper_core7plugins6common8headlessNtB6_7Element5click0Bc_
FNF:33
FNH:14
DA:24,6
DA:25,6
DA:26,6
DA:28,5
DA:29,5
DA:30,5
DA:31,5
DA:32,5
DA:33,5
DA:35,5
DA:36,5
DA:37,5
DA:38,5
DA:39,5
DA:41,5
DA:42,5
DA:44,3
DA:45,3
DA:46,3
DA:47,3
DA:48,3
DA:49,3
DA:51,0
DA:52,0
DA:53,0
DA:55,0
DA:56,0
DA:57,0
DA:58,0
DA:62,3
DA:64,1
DA:65,1
DA:66,1
DA:67,1
DA:68,1
DA:69,1
DA:70,1
DA:72,10
DA:74,1
DA:75,1
DA:77,1
DA:78,1
DA:79,1
DA:80,1
DA:81,1
DA:82,1
DA:83,1
DA:85,1
DA:86,1
DA:94,1
DA:95,1
DA:96,1
DA:97,1
DA:98,1
DA:99,1
DA:100,1
DA:102,1
DA:103,1
DA:105,1
DA:106,1
DA:107,1
DA:108,1
DA:109,1
DA:110,1
DA:111,1
DA:113,1
DA:114,1
DA:123,0
DA:124,0
DA:125,0
DA:126,0
DA:127,0
DA:128,0
DA:132,0
DA:133,0
DA:134,0
DA:135,0
DA:136,0
DA:137,0
DA:138,0
DA:139,0
DA:140,0
DA:142,0
DA:143,0
DA:144,0
DA:145,0
DA:146,0
DA:147,0
DA:148,0
DA:149,0
DA:151,0
DA:153,0
DA:155,0
DA:156,0
DA:157,0
DA:158,0
DA:159,0
DA:160,0
DA:161,0
DA:162,0
DA:164,0
DA:166,0
DA:168,0
DA:169,0
DA:170,0
BRF:0
BRH:0
LF:126
LH:67
end_of_record
SF:/mnt/040b9fb6-50c4-4490-87c6-b7dd911435c9/Projects/rust/manga-vault/scrapers/scraper_core/src/plugins/common/html.rs
FN:128,_RNCNCNvMs1_NtNtNtCsbhzFdUIifu6_12scraper_core7plugins6common4htmlNtB9_11HtmlElement5__find00Bf_
FN:150,_RNCNCNvMs1_NtNtNtCsbhzFdUIifu6_12scraper_core7plugins6common4htmlNtB9_11HtmlElement9__find_one00Bf_
FN:56,_RNCNvMNtNtNtCsbhzFdUIifu6_12scraper_core7plugins6common4htmlNtB4_12HtmlDocument5__html0Ba_
FN:122,_RNCNvMs1_NtNtNtCsbhzFdUIifu6_12scraper_core7plugins6common4htmlNtB7_11HtmlElement5__find0Bd_
FN:145,_RNCNvMs1_NtNtNtCsbhzFdUIifu6_12scraper_core7plugins6common4htmlNtB7_11HtmlElement9__find_one0Bd_
FN:56,_RNvMNtNtNtCsbhzFdUIifu6_12scraper_core7plugins6common4htmlNtB2_12HtmlDocument5__html
FN:122,_RNvMs1_NtNtNtCsbhzFdUIifu6_12scraper_core7plugins6common4htmlNtB5_11HtmlElement5__find
FN:145,_RNvMs1_NtNtNtCsbhzFdUIifu6_12scraper_core7plugins6common4htmlNtB5_11HtmlElement9__find_one
FN:76,_RNvXs0_NtNtNtCsbhzFdUIifu6_12scraper_core7plugins6common4htmlNtB5_11HtmlElementNtNtCs5IYWBWA2NF0_4mlua6traits7FromLua8from_lua
FN:67,_RNvXs_NtNtNtCsbhzFdUIifu6_12scraper_core7plugins6common4htmlNtB4_11HtmlElementNtNtCs5IYWBWA2NF0_4mlua6traits7IntoLua8into_lua
FN:15,_RNvMNtNtNtCsbhzFdUIifu6_12scraper_core7plugins6common4htmlNtB2_12HtmlDocument3new
FN:19,_RNvMNtNtNtCsbhzFdUIifu6_12scraper_core7plugins6common4htmlNtB2_12HtmlDocument4find
FN:38,_RNvMNtNtNtCsbhzFdUIifu6_12scraper_core7plugins6common4htmlNtB2_12HtmlDocument8find_one
FN:86,_RNvMs1_NtNtNtCsbhzFdUIifu6_12scraper_core7plugins6common4htmlNtB5_11HtmlElement3new
FN:106,_RNvMs1_NtNtNtCsbhzFdUIifu6_12scraper_core7plugins6common4htmlNtB5_11HtmlElement4attr
FN:118,_RNvMs1_NtNtNtCsbhzFdUIifu6_12scraper_core7plugins6common4htmlNtB5_11HtmlElement4html
FN:90,_RNvMs1_NtNtNtCsbhzFdUIifu6_12scraper_core7plugins6common4htmlNtB5_11HtmlElement4text
FN:109,_RNCNCNvMs1_NtNtNtCsbhzFdUIifu6_12scraper_core7plugins6common4htmlNtB9_11HtmlElement4attr00Bf_
FN:112,_RNCNCNvMs1_NtNtNtCsbhzFdUIifu6_12scraper_core7plugins6common4htmlNtB9_11HtmlElement4attr0s_0Bf_
FN:97,_RNCNCNvMs1_NtNtNtCsbhzFdUIifu6_12scraper_core7plugins6common4htmlNtB9_11HtmlElement4text00Bf_
FN:19,_RNCNvMNtNtNtCsbhzFdUIifu6_12scraper_core7plugins6common4htmlNtB4_12HtmlDocument4find0Ba_
FN:38,_RNCNvMNtNtNtCsbhzFdUIifu6_12scraper_core7plugins6common4htmlNtB4_12HtmlDocument8find_one0Ba_
FN:106,_RNCNvMs1_NtNtNtCsbhzFdUIifu6_12scraper_core7plugins6common4htmlNtB7_11HtmlElement4attr0Bd_
FN:90,_RNCNvMs1_NtNtNtCsbhzFdUIifu6_12scraper_core7plugins6common4htmlNtB7_11HtmlElement4text0Bd_
FNDA:0,_RNCNCNvMs1_NtNtNtCsbhzFdUIifu6_12scraper_core7plugins6common4htmlNtB9_11HtmlElement5__find00Bf_
FNDA:0,_RNCNCNvMs1_NtNtNtCsbhzFdUIifu6_12scraper_core7plugins6common4htmlNtB9_11HtmlElement9__find_one00Bf_
FNDA:0,_RNCNvMNtNtNtCsbhzFdUIifu6_12scraper_core7plugins6common4htmlNtB4_12HtmlDocument5__html0Ba_
FNDA:0,_RNCNvMs1_NtNtNtCsbhzFdUIifu6_12scraper_core7plugins6common4htmlNtB7_11HtmlElement5__find0Bd_
FNDA:0,_RNCNvMs1_NtNtNtCsbhzFdUIifu6_12scraper_core7plugins6common4htmlNtB7_11HtmlElement9__find_one0Bd_
FNDA:0,_RNvMNtNtNtCsbhzFdUIifu6_12scraper_core7plugins6common4htmlNtB2_12HtmlDocument5__html
FNDA:0,_RNvMs1_NtNtNtCsbhzFdUIifu6_12scraper_core7plugins6common4htmlNtB5_11HtmlElement5__find
FNDA:0,_RNvMs1_NtNtNtCsbhzFdUIifu6_12scraper_core7plugins6common4htmlNtB5_11HtmlElement9__find_one
FNDA:0,_RNvXs0_NtNtNtCsbhzFdUIifu6_12scraper_core7plugins6common4htmlNtB5_11HtmlElementNtNtCs5IYWBWA2NF0_4mlua6traits7FromLua8from_lua
FNDA:0,_RNvXs_NtNtNtCsbhzFdUIifu6_12scraper_core7plugins6common4htmlNtB4_11HtmlElementNtNtCs5IYWBWA2NF0_4mlua6traits7IntoLua8into_lua
FNDA:1,_RNvMNtNtNtCsbhzFdUIifu6_12scraper_core7plugins6common4htmlNtB2_12HtmlDocument3new
FNDA:1,_RNvMNtNtNtCsbhzFdUIifu6_12scraper_core7plugins6common4htmlNtB2_12HtmlDocument4find
FNDA:0,_RNvMNtNtNtCsbhzFdUIifu6_12scraper_core7plugins6common4htmlNtB2_12HtmlDocument8find_one
FNDA:2,_RNvMs1_NtNtNtCsbhzFdUIifu6_12scraper_core7plugins6common4htmlNtB5_11HtmlElement3new
FNDA:1,_RNvMs1_NtNtNtCsbhzFdUIifu6_12scraper_core7plugins6common4htmlNtB5_11HtmlElement4attr
FNDA:2,_RNvMs1_NtNtNtCsbhzFdUIifu6_12scraper_core7plugins6common4htmlNtB5_11HtmlElement4html
FNDA:1,_RNvMs1_NtNtNtCsbhzFdUIifu6_12scraper_core7plugins6common4htmlNtB5_11HtmlElement4text
FNDA:0,_RNCNCNvMs1_NtNtNtCsbhzFdUIifu6_12scraper_core7plugins6common4htmlNtB9_11HtmlElement4attr00Bf_
FNDA:1,_RNCNCNvMs1_NtNtNtCsbhzFdUIifu6_12scraper_core7plugins6common4htmlNtB9_11HtmlElement4attr0s_0Bf_
FNDA:0,_RNCNCNvMs1_NtNtNtCsbhzFdUIifu6_12scraper_core7plugins6common4htmlNtB9_11HtmlElement4text00Bf_
FNDA:1,_RNCNvMNtNtNtCsbhzFdUIifu6_12scraper_core7plugins6common4htmlNtB4_12HtmlDocument4find0Ba_
FNDA:0,_RNCNvMNtNtNtCsbhzFdUIifu6_12scraper_core7plugins6common4htmlNtB4_12HtmlDocument8find_one0Ba_
FNDA:1,_RNCNvMs1_NtNtNtCsbhzFdUIifu6_12scraper_core7plugins6common4htmlNtB7_11HtmlElement4attr0Bd_
FNDA:1,_RNCNvMs1_NtNtNtCsbhzFdUIifu6_12scraper_core7plugins6common4htmlNtB7_11HtmlElement4text0Bd_
FNF:24
FNH:10
DA:15,1
DA:16,1
DA:17,1
DA:19,1
DA:20,1
DA:21,1
DA:22,1
DA:23,1
DA:24,2
DA:25,2
DA:26,2
DA:27,2
DA:28,2
DA:29,2
DA:30,2
DA:31,2
DA:32,1
DA:34,0
DA:36,1
DA:38,0
DA:39,0
DA:40,0
DA:41,0
DA:42,0
DA:43,0
DA:44,0
DA:45,0
DA:46,0
DA:47,0
DA:49,0
DA:52,0
DA:54,0
DA:56,0
DA:57,0
DA:58,0
DA:67,0
DA:68,0
DA:69,0
DA:70,0
DA:71,0
DA:72,0
DA:76,0
DA:77,0
DA:79,0
DA:80,0
DA:82,0
DA:86,2
DA:87,2
DA:88,2
DA:90,1
DA:91,1
DA:92,1
DA:93,1
DA:94,0
DA:96,0
DA:97,0
DA:98,0
DA:99,0
DA:100,0
DA:102,0
DA:104,1
DA:106,1
DA:107,1
DA:108,1
DA:109,1
DA:110,1
DA:111,1
DA:112,1
DA:114,0
DA:116,1
DA:118,2
DA:119,2
DA:120,2
DA:122,0
DA:123,0
DA:124,0
DA:125,0
DA:126,0
DA:127,0
DA:128,0
DA:129,0
DA:130,0
DA:131,0
DA:132,0
DA:133,0
DA:134,0
DA:135,0
DA:136,0
DA:137,0
DA:139,0
DA:141,0
DA:143,0
DA:145,0
DA:146,0
DA:147,0
DA:148,0
DA:149,0
DA:150,0
DA:151,0
DA:152,0
DA:153,0
DA:154,0
DA:155,0
DA:156,0
DA:157,0
DA:158,0
DA:159,0
DA:160,0
DA:162,0
DA:164,0
BRF:0
BRH:0
LF:122
LH:41
end_of_record
SF:/mnt/040b9fb6-50c4-4490-87c6-b7dd911435c9/Projects/rust/manga-vault/scrapers/scraper_core/src/plugins/common/http.rs
FN:31,_RNvXs_NtNtNtCsbhzFdUIifu6_12scraper_core7plugins6common4httpNtB4_10CommonHttpNtNtCs9bgXZFP4km6_4core7default7Default7default
FN:23,_RNvMNtNtNtCsbhzFdUIifu6_12scraper_core7plugins6common4httpNtB2_10CommonHttp3new
FN:37,_RNvMs0_NtNtNtCsbhzFdUIifu6_12scraper_core7plugins6common4httpNtB5_10CommonHttp3get
FN:59,_RNvMs0_NtNtNtCsbhzFdUIifu6_12scraper_core7plugins6common4httpNtB5_10CommonHttp4post
FN:88,_RNvNtNtNtCsbhzFdUIifu6_12scraper_core7plugins6common4http12get_response
FN:41,_RNCNCNvMs0_NtNtNtCsbhzFdUIifu6_12scraper_core7plugins6common4httpNtB9_10CommonHttp3get00Bf_
FN:54,_RNCNCNvMs0_NtNtNtCsbhzFdUIifu6_12scraper_core7plugins6common4httpNtB9_10CommonHttp3get0s_0Bf_
FN:68,_RNCNCNvMs0_NtNtNtCsbhzFdUIifu6_12scraper_core7plugins6common4httpNtB9_10CommonHttp4post00Bf_
FN:82,_RNCNCNvMs0_NtNtNtCsbhzFdUIifu6_12scraper_core7plugins6common4httpNtB9_10CommonHttp4post0s_0Bf_
FN:93,_RNCNCNvNtNtNtCsbhzFdUIifu6_12scraper_core7plugins6common4http12get_response00Bb_
FN:96,_RNCNCNvNtNtNtCsbhzFdUIifu6_12scraper_core7plugins6common4http12get_response0s_0Bb_
FN:37,_RNCNvMs0_NtNtNtCsbhzFdUIifu6_12scraper_core7plugins6common4httpNtB7_10CommonHttp3get0Bd_
FN:64,_RNCNvMs0_NtNtNtCsbhzFdUIifu6_12scraper_core7plugins6common4httpNtB7_10CommonHttp4post0Bd_
FN:88,_RNCNvNtNtNtCsbhzFdUIifu6_12scraper_core7plugins6common4http12get_response0B9_
FNDA:0,_RNvXs_NtNtNtCsbhzFdUIifu6_12scraper_core7plugins6common4httpNtB4_10CommonHttpNtNtCs9bgXZFP4km6_4core7default7Default7default
FNDA:4,_RNvMNtNtNtCsbhzFdUIifu6_12scraper_core7plugins6common4httpNtB2_10CommonHttp3new
FNDA:1,_RNvMs0_NtNtNtCsbhzFdUIifu6_12scraper_core7plugins6common4httpNtB5_10CommonHttp3get
FNDA:1,_RNvMs0_NtNtNtCsbhzFdUIifu6_12scraper_core7plugins6common4httpNtB5_10CommonHttp4post
FNDA:2,_RNvNtNtNtCsbhzFdUIifu6_12scraper_core7plugins6common4http12get_response
FNDA:0,_RNCNCNvMs0_NtNtNtCsbhzFdUIifu6_12scraper_core7plugins6common4httpNtB9_10CommonHttp3get00Bf_
FNDA:0,_RNCNCNvMs0_NtNtNtCsbhzFdUIifu6_12scraper_core7plugins6common4httpNtB9_10CommonHttp3get0s_0Bf_
FNDA:1,_RNCNCNvMs0_NtNtNtCsbhzFdUIifu6_12scraper_core7plugins6common4httpNtB9_10CommonHttp4post00Bf_
FNDA:0,_RNCNCNvMs0_NtNtNtCsbhzFdUIifu6_12scraper_core7plugins6common4httpNtB9_10CommonHttp4post0s_0Bf_
FNDA:7,_RNCNCNvNtNtNtCsbhzFdUIifu6_12scraper_core7plugins6common4http12get_response00Bb_
FNDA:0,_RNCNCNvNtNtNtCsbhzFdUIifu6_12scraper_core7plugins6common4http12get_response0s_0Bb_
FNDA:1,_RNCNvMs0_NtNtNtCsbhzFdUIifu6_12scraper_core7plugins6common4httpNtB7_10CommonHttp3get0Bd_
FNDA:1,_RNCNvMs0_NtNtNtCsbhzFdUIifu6_12scraper_core7plugins6common4httpNtB7_10CommonHttp4post0Bd_
FNDA:2,_RNCNvNtNtNtCsbhzFdUIifu6_12scraper_core7plugins6common4http12get_response0B9_
FNF:14
FNH:9
DA:23,4
DA:24,4
DA:25,4
DA:26,4
DA:27,4
DA:31,0
DA:32,0
DA:33,0
DA:37,1
DA:38,1
DA:39,1
DA:40,1
DA:41,1
DA:42,0
DA:43,0
DA:44,0
DA:45,0
DA:46,1
DA:48,1
DA:49,1
DA:50,1
DA:51,1
DA:52,1
DA:53,1
DA:54,1
DA:56,1
DA:57,1
DA:59,1
DA:60,1
DA:61,1
DA:62,1
DA:63,1
DA:64,1
DA:65,1
DA:66,1
DA:67,1
DA:68,1
DA:69,1
DA:70,1
DA:71,1
DA:72,1
DA:73,1
DA:75,1
DA:76,1
DA:77,1
DA:78,1
DA:79,1
DA:80,1
DA:81,1
DA:82,1
DA:84,1
DA:85,1
DA:88,2
DA:89,2
DA:90,2
DA:91,2
DA:92,2
DA:93,7
DA:94,2
DA:96,2
DA:98,2
DA:99,2
BRF:0
BRH:0
LF:71
LH:60
end_of_record
SF:/mnt/040b9fb6-50c4-4490-87c6-b7dd911435c9/Projects/rust/manga-vault/scrapers/scraper_core/src/plugins/globals/flare_solverr.rs
FN:28,_RNvNtNtNtCsbhzFdUIifu6_12scraper_core7plugins7globals13flare_solverr4load
FN:10,_RNCINvXNtNtNtCsbhzFdUIifu6_12scraper_core7plugins7globals13flare_solverrNtNtNtB9_6common13flare_solverr19FlareSolverrManagerNtNtCs5IYWBWA2NF0_4mlua8userdata8UserData11add_methodsINtNtB20_8registry16UserDataRegistryB18_EE0Bb_
FN:24,_RNCINvXNtNtNtCsbhzFdUIifu6_12scraper_core7plugins7globals13flare_solverrNtNtNtB9_6common13flare_solverr19FlareSolverrManagerNtNtCs5IYWBWA2NF0_4mlua8userdata8UserData11add_methodsINtNtB20_8registry16UserDataRegistryB18_EEs_0Bb_
FN:15,_RNCNCINvXNtNtNtCsbhzFdUIifu6_12scraper_core7plugins7globals13flare_solverrNtNtNtBb_6common13flare_solverr19FlareSolverrManagerNtNtCs5IYWBWA2NF0_4mlua8userdata8UserData11add_methodsINtNtB22_8registry16UserDataRegistryB1a_EEs_00Bd_
FN:17,_RNCNCNCINvXNtNtNtCsbhzFdUIifu6_12scraper_core7plugins7globals13flare_solverrNtNtNtBd_6common13flare_solverr19FlareSolverrManagerNtNtCs5IYWBWA2NF0_4mlua8userdata8UserData11add_methodsINtNtB24_8registry16UserDataRegistryB1c_EEs_000Bf_
FN:9,_RINvXNtNtNtCsbhzFdUIifu6_12scraper_core7plugins7globals13flare_solverrNtNtNtB7_6common13flare_solverr19FlareSolverrManagerNtNtCs5IYWBWA2NF0_4mlua8userdata8UserData11add_methodsINtNtB1Y_8registry16UserDataRegistryB16_EEB9_
FNDA:1,_RNvNtNtNtCsbhzFdUIifu6_12scraper_core7plugins7globals13flare_solverr4load
FNDA:0,_RNCINvXNtNtNtCsbhzFdUIifu6_12scraper_core7plugins7globals13flare_solverrNtNtNtB9_6common13flare_solverr19FlareSolverrManagerNtNtCs5IYWBWA2NF0_4mlua8userdata8UserData11add_methodsINtNtB20_8registry16UserDataRegistryB18_EE0Bb_
FNDA:1,_RNCINvXNtNtNtCsbhzFdUIifu6_12scraper_core7plugins7globals13flare_solverrNtNtNtB9_6common13flare_solverr19FlareSolverrManagerNtNtCs5IYWBWA2NF0_4mlua8userdata8UserData11add_methodsINtNtB20_8registry16UserDataRegistryB18_EEs_0Bb_
FNDA:1,_RNCNCINvXNtNtNtCsbhzFdUIifu6_12scraper_core7plugins7globals13flare_solverrNtNtNtBb_6common13flare_solverr19FlareSolverrManagerNtNtCs5IYWBWA2NF0_4mlua8userdata8UserData11add_methodsINtNtB22_8registry16UserDataRegistryB1a_EEs_00Bd_
FNDA:0,_RNCNCNCINvXNtNtNtCsbhzFdUIifu6_12scraper_core7plugins7globals13flare_solverrNtNtNtBd_6common13flare_solverr19FlareSolverrManagerNtNtCs5IYWBWA2NF0_4mlua8userdata8UserData11add_methodsINtNtB24_8registry16UserDataRegistryB1c_EEs_000Bf_
FNDA:1,_RINvXNtNtNtCsbhzFdUIifu6_12scraper_core7plugins7globals13flare_solverrNtNtNtB7_6common13flare_solverr19FlareSolverrManagerNtNtCs5IYWBWA2NF0_4mlua8userdata8UserData11add_methodsINtNtB1Y_8registry16UserDataRegistryB16_EEB9_
FNF:6
FNH:4
DA:9,1
DA:10,1
DA:11,0
DA:12,0
DA:13,0
DA:15,1
DA:16,1
DA:17,1
DA:18,1
DA:19,1
DA:21,1
DA:23,1
DA:24,2
DA:25,1
DA:28,1
DA:29,1
DA:30,1
DA:31,1
DA:32,1
BRF:0
BRH:0
LF:23
LH:18
end_of_record
SF:/mnt/040b9fb6-50c4-4490-87c6-b7dd911435c9/Projects/rust/manga-vault/scrapers/scraper_core/src/plugins/globals/headless.rs
FN:42,_RINvXs0_NtNtNtCsbhzFdUIifu6_12scraper_core7plugins7globals8headlessNtNtNtBa_6common8headless13DummyHeadlessNtNtCs5IYWBWA2NF0_4mlua8userdata8UserData11add_methodspEBc_
FN:45,_RNCINvXs0_NtNtNtCsbhzFdUIifu6_12scraper_core7plugins7globals8headlessNtNtNtBc_6common8headless13DummyHeadlessNtNtCs5IYWBWA2NF0_4mlua8userdata8UserData11add_methodspE0Be_
FN:62,_RNCINvXs0_NtNtNtCsbhzFdUIifu6_12scraper_core7plugins7globals8headlessNtNtNtBc_6common8headless13DummyHeadlessNtNtCs5IYWBWA2NF0_4mlua8userdata8UserData11add_methodspEs0_0Be_
FN:66,_RNCINvXs0_NtNtNtCsbhzFdUIifu6_12scraper_core7plugins7globals8headlessNtNtNtBc_6common8headless13DummyHeadlessNtNtCs5IYWBWA2NF0_4mlua8userdata8UserData11add_methodspEs1_0Be_
FN:53,_RNCINvXs0_NtNtNtCsbhzFdUIifu6_12scraper_core7plugins7globals8headlessNtNtNtBc_6common8headless13DummyHeadlessNtNtCs5IYWBWA2NF0_4mlua8userdata8UserData11add_methodspEs_0Be_
FN:43,_RNCNCINvXs0_NtNtNtCsbhzFdUIifu6_12scraper_core7plugins7globals8headlessNtNtNtBe_6common8headless13DummyHeadlessNtNtCs5IYWBWA2NF0_4mlua8userdata8UserData11add_methodspE00Bg_
FN:55,_RNCNCINvXs0_NtNtNtCsbhzFdUIifu6_12scraper_core7plugins7globals8headlessNtNtNtBe_6common8headless13DummyHeadlessNtNtCs5IYWBWA2NF0_4mlua8userdata8UserData11add_methodspEs0_00Bg_
FN:64,_RNCNCINvXs0_NtNtNtCsbhzFdUIifu6_12scraper_core7plugins7globals8headlessNtNtNtBe_6common8headless13DummyHeadlessNtNtCs5IYWBWA2NF0_4mlua8userdata8UserData11add_methodspEs1_00Bg_
FN:47,_RNCNCINvXs0_NtNtNtCsbhzFdUIifu6_12scraper_core7plugins7globals8headlessNtNtNtBe_6common8headless13DummyHeadlessNtNtCs5IYWBWA2NF0_4mlua8userdata8UserData11add_methodspEs_00Bg_
FN:70,_RNCNvNtNtNtCsbhzFdUIifu6_12scraper_core7plugins7globals8headless4load0B9_
FN:70,_RNvNtNtNtCsbhzFdUIifu6_12scraper_core7plugins7globals8headless4load
FN:10,_RINvXNtNtNtCsbhzFdUIifu6_12scraper_core7plugins7globals8headlessNtNtNtB7_6common8headless14HeadlessClientNtNtCs5IYWBWA2NF0_4mlua8userdata8UserData11add_methodsINtNtB1H_8registry16UserDataRegistryB10_EEB9_
FN:30,_RINvXs_NtNtNtCsbhzFdUIifu6_12scraper_core7plugins7globals8headlessNtNtNtB9_6common8headless7ElementNtNtCs5IYWBWA2NF0_4mlua8userdata8UserData11add_methodsINtNtB1B_8registry16UserDataRegistryB12_EEBb_
FN:13,_RNCINvXNtNtNtCsbhzFdUIifu6_12scraper_core7plugins7globals8headlessNtNtNtB9_6common8headless14HeadlessClientNtNtCs5IYWBWA2NF0_4mlua8userdata8UserData11add_methodsINtNtB1J_8registry16UserDataRegistryB12_EE0Bb_
FN:21,_RNCINvXNtNtNtCsbhzFdUIifu6_12scraper_core7plugins7globals8headlessNtNtNtB9_6common8headless14HeadlessClientNtNtCs5IYWBWA2NF0_4mlua8userdata8UserData11add_methodsINtNtB1J_8registry16UserDataRegistryB12_EEs0_0Bb_
FN:25,_RNCINvXNtNtNtCsbhzFdUIifu6_12scraper_core7plugins7globals8headlessNtNtNtB9_6common8headless14HeadlessClientNtNtCs5IYWBWA2NF0_4mlua8userdata8UserData11add_methodsINtNtB1J_8registry16UserDataRegistryB12_EEs1_0Bb_
FN:17,_RNCINvXNtNtNtCsbhzFdUIifu6_12scraper_core7plugins7globals8headlessNtNtNtB9_6common8headless14HeadlessClientNtNtCs5IYWBWA2NF0_4mlua8userdata8UserData11add_methodsINtNtB1J_8registry16UserDataRegistryB12_EEs_0Bb_
FN:33,_RNCINvXs_NtNtNtCsbhzFdUIifu6_12scraper_core7plugins7globals8headlessNtNtNtBb_6common8headless7ElementNtNtCs5IYWBWA2NF0_4mlua8userdata8UserData11add_methodsINtNtB1D_8registry16UserDataRegistryB14_EE0Bd_
FN:37,_RNCINvXs_NtNtNtCsbhzFdUIifu6_12scraper_core7plugins7globals8headlessNtNtNtBb_6common8headless7ElementNtNtCs5IYWBWA2NF0_4mlua8userdata8UserData11add_methodsINtNtB1D_8registry16UserDataRegistryB14_EEs_0Bd_
FN:11,_RNCNCINvXNtNtNtCsbhzFdUIifu6_12scraper_core7plugins7globals8headlessNtNtNtBb_6common8headless14HeadlessClientNtNtCs5IYWBWA2NF0_4mlua8userdata8UserData11add_methodsINtNtB1L_8registry16UserDataRegistryB14_EE00Bd_
FN:19,_RNCNCINvXNtNtNtCsbhzFdUIifu6_12scraper_core7plugins7globals8headlessNtNtNtBb_6common8headless14HeadlessClientNtNtCs5IYWBWA2NF0_4mlua8userdata8UserData11add_methodsINtNtB1L_8registry16UserDataRegistryB14_EEs0_00Bd_
FN:23,_RNCNCINvXNtNtNtCsbhzFdUIifu6_12scraper_core7plugins7globals8headlessNtNtNtBb_6common8headless14HeadlessClientNtNtCs5IYWBWA2NF0_4mlua8userdata8UserData11add_methodsINtNtB1L_8registry16UserDataRegistryB14_EEs1_00Bd_
FN:15,_RNCNCINvXNtNtNtCsbhzFdUIifu6_12scraper_core7plugins7globals8headlessNtNtNtBb_6common8headless14HeadlessClientNtNtCs5IYWBWA2NF0_4mlua8userdata8UserData11add_methodsINtNtB1L_8registry16UserDataRegistryB14_EEs_00Bd_
FN:31,_RNCNCINvXs_NtNtNtCsbhzFdUIifu6_12scraper_core7plugins7globals8headlessNtNtNtBd_6common8headless7ElementNtNtCs5IYWBWA2NF0_4mlua8userdata8UserData11add_methodsINtNtB1F_8registry16UserDataRegistryB16_EE00Bf_
FN:35,_RNCNCINvXs_NtNtNtCsbhzFdUIifu6_12scraper_core7plugins7globals8headlessNtNtNtBd_6common8headless7ElementNtNtCs5IYWBWA2NF0_4mlua8userdata8UserData11add_methodsINtNtB1F_8registry16UserDataRegistryB16_EEs_00Bf_
FNDA:0,_RINvXs0_NtNtNtCsbhzFdUIifu6_12scraper_core7plugins7globals8headlessNtNtNtBa_6common8headless13DummyHeadlessNtNtCs5IYWBWA2NF0_4mlua8userdata8UserData11add_methodspEBc_
FNDA:0,_RNCINvXs0_NtNtNtCsbhzFdUIifu6_12scraper_core7plugins7globals8headlessNtNtNtBc_6common8headless13DummyHeadlessNtNtCs5IYWBWA2NF0_4mlua8userdata8UserData11add_methodspE0Be_
FNDA:0,_RNCINvXs0_NtNtNtCsbhzFdUIifu6_12scraper_core7plugins7globals8headlessNtNtNtBc_6common8headless13DummyHeadlessNtNtCs5IYWBWA2NF0_4mlua8userdata8UserData11add_methodspEs0_0Be_
FNDA:0,_RNCINvXs0_NtNtNtCsbhzFdUIifu6_12scraper_core7plugins7globals8headlessNtNtNtBc_6common8headless13DummyHeadlessNtNtCs5IYWBWA2NF0_4mlua8userdata8UserData11add_methodspEs1_0Be_
FNDA:0,_RNCINvXs0_NtNtNtCsbhzFdUIifu6_12scraper_core7plugins7globals8headlessNtNtNtBc_6common8headless13DummyHeadlessNtNtCs5IYWBWA2NF0_4mlua8userdata8UserData11add_methodspEs_0Be_
FNDA:0,_RNCNCINvXs0_NtNtNtCsbhzFdUIifu6_12scraper_core7plugins7globals8headlessNtNtNtBe_6common8headless13DummyHeadlessNtNtCs5IYWBWA2NF0_4mlua8userdata8UserData11add_methodspE00Bg_
FNDA:0,_RNCNCINvXs0_NtNtNtCsbhzFdUIifu6_12scraper_core7plugins7globals8headlessNtNtNtBe_6common8headless13DummyHeadlessNtNtCs5IYWBWA2NF0_4mlua8userdata8UserData11add_methodspEs0_00Bg_
FNDA:0,_RNCNCINvXs0_NtNtNtCsbhzFdUIifu6_12scraper_core7plugins7globals8headlessNtNtNtBe_6common8headless13DummyHeadlessNtNtCs5IYWBWA2NF0_4mlua8userdata8UserData11add_methodspEs1_00Bg_
FNDA:0,_RNCNCINvXs0_NtNtNtCsbhzFdUIifu6_12scraper_core7plugins7globals8headlessNtNtNtBe_6common8headless13DummyHeadlessNtNtCs5IYWBWA2NF0_4mlua8userdata8UserData11add_methodspEs_00Bg_
FNDA:0,_RNCNvNtNtNtCsbhzFdUIifu6_12scraper_core7plugins7globals8headless4load0B9_
FNDA:0,_RNvNtNtNtCsbhzFdUIifu6_12scraper_core7plugins7globals8headless4load
FNDA:6,_RINvXNtNtNtCsbhzFdUIifu6_12scraper_core7plugins7globals8headlessNtNtNtB7_6common8headless14HeadlessClientNtNtCs5IYWBWA2NF0_4mlua8userdata8UserData11add_methodsINtNtB1H_8registry16UserDataRegistryB10_EEB9_
FNDA:4,_RINvXs_NtNtNtCsbhzFdUIifu6_12scraper_core7plugins7globals8headlessNtNtNtB9_6common8headless7ElementNtNtCs5IYWBWA2NF0_4mlua8userdata8UserData11add_methodsINtNtB1B_8registry16UserDataRegistryB12_EEBb_
FNDA:5,_RNCINvXNtNtNtCsbhzFdUIifu6_12scraper_core7plugins7globals8headlessNtNtNtB9_6common8headless14HeadlessClientNtNtCs5IYWBWA2NF0_4mlua8userdata8UserData11add_methodsINtNtB1J_8registry16UserDataRegistryB12_EE0Bb_
FNDA:1,_RNCINvXNtNtNtCsbhzFdUIifu6_12scraper_core7plugins7globals8headlessNtNtNtB9_6common8headless14HeadlessClientNtNtCs5IYWBWA2NF0_4mlua8userdata8UserData11add_methodsINtNtB1J_8registry16UserDataRegistryB12_EEs0_0Bb_
FNDA:1,_RNCINvXNtNtNtCsbhzFdUIifu6_12scraper_core7plugins7globals8headlessNtNtNtB9_6common8headless14HeadlessClientNtNtCs5IYWBWA2NF0_4mlua8userdata8UserData11add_methodsINtNtB1J_8registry16UserDataRegistryB12_EEs1_0Bb_
FNDA:3,_RNCINvXNtNtNtCsbhzFdUIifu6_12scraper_core7plugins7globals8headlessNtNtNtB9_6common8headless14HeadlessClientNtNtCs5IYWBWA2NF0_4mlua8userdata8UserData11add_methodsINtNtB1J_8registry16UserDataRegistryB12_EEs_0Bb_
FNDA:1,_RNCINvXs_NtNtNtCsbhzFdUIifu6_12scraper_core7plugins7globals8headlessNtNtNtBb_6common8headless7ElementNtNtCs5IYWBWA2NF0_4mlua8userdata8UserData11add_methodsINtNtB1D_8registry16UserDataRegistryB14_EE0Bd_
FNDA:1,_RNCINvXs_NtNtNtCsbhzFdUIifu6_12scraper_core7plugins7globals8headlessNtNtNtBb_6common8headless7ElementNtNtCs5IYWBWA2NF0_4mlua8userdata8UserData11add_methodsINtNtB1D_8registry16UserDataRegistryB14_EEs_0Bd_
FNDA:5,_RNCNCINvXNtNtNtCsbhzFdUIifu6_12scraper_core7plugins7globals8headlessNtNtNtBb_6common8headless14HeadlessClientNtNtCs5IYWBWA2NF0_4mlua8userdata8UserData11add_methodsINtNtB1L_8registry16UserDataRegistryB14_EE00Bd_
FNDA:1,_RNCNCINvXNtNtNtCsbhzFdUIifu6_12scraper_core7plugins7globals8headlessNtNtNtBb_6common8headless14HeadlessClientNtNtCs5IYWBWA2NF0_4mlua8userdata8UserData11add_methodsINtNtB1L_8registry16UserDataRegistryB14_EEs0_00Bd_
FNDA:1,_RNCNCINvXNtNtNtCsbhzFdUIifu6_12scraper_core7plugins7globals8headlessNtNtNtBb_6common8headless14HeadlessClientNtNtCs5IYWBWA2NF0_4mlua8userdata8UserData11add_methodsINtNtB1L_8registry16UserDataRegistryB14_EEs1_00Bd_
FNDA:3,_RNCNCINvXNtNtNtCsbhzFdUIifu6_12scraper_core7plugins7globals8headlessNtNtNtBb_6common8headless14HeadlessClientNtNtCs5IYWBWA2NF0_4mlua8userdata8UserData11add_methodsINtNtB1L_8registry16UserDataRegistryB14_EEs_00Bd_
FNDA:1,_RNCNCINvXs_NtNtNtCsbhzFdUIifu6_12scraper_core7plugins7globals8headlessNtNtNtBd_6common8headless7ElementNtNtCs5IYWBWA2NF0_4mlua8userdata8UserData11add_methodsINtNtB1F_8registry16UserDataRegistryB16_EE00Bf_
FNDA:1,_RNCNCINvXs_NtNtNtCsbhzFdUIifu6_12scraper_core7plugins7globals8headlessNtNtNtBd_6common8headless7ElementNtNtCs5IYWBWA2NF0_4mlua8userdata8UserData11add_methodsINtNtB1F_8registry16UserDataRegistryB16_EEs_00Bf_
FNF:25
FNH:14
DA:10,6
DA:11,6
DA:12,5
DA:13,10
DA:15,6
DA:16,3
DA:17,6
DA:19,6
DA:20,1
DA:21,2
DA:23,6
DA:24,1
DA:25,2
DA:26,6
DA:30,4
DA:31,4
DA:32,1
DA:33,2
DA:35,4
DA:36,1
DA:37,2
DA:38,4
DA:42,0
DA:43,0
DA:44,0
DA:45,0
DA:47,0
DA:48,0
DA:49,0
DA:50,0
DA:51,0
DA:53,0
DA:55,0
DA:56,0
DA:57,0
DA:58,0
DA:59,0
DA:61,0
DA:62,0
DA:64,0
DA:65,0
DA:66,0
DA:67,0
DA:70,0
DA:71,0
DA:72,0
DA:73,0
DA:74,0
DA:75,0
DA:76,0
DA:78,0
DA:79,0
DA:81,0
DA:83,0
DA:84,0
DA:85,0
DA:86,0
DA:87,0
DA:89,0
DA:90,0
DA:91,0
DA:92,0
DA:94,0
DA:95,0
BRF:0
BRH:0
LF:85
LH:34
end_of_record
SF:/mnt/040b9fb6-50c4-4490-87c6-b7dd911435c9/Projects/rust/manga-vault/scrapers/scraper_core/src/plugins/globals/http.rs
FN:14,_RNCINvXNtNtNtCsbhzFdUIifu6_12scraper_core7plugins7globals4httpNtNtNtB9_6common4http10CommonHttpNtNtCs5IYWBWA2NF0_4mlua8userdata8UserData11add_methodsINtNtB1x_8registry16UserDataRegistryBY_EE0Bb_
FN:27,_RNCINvXNtNtNtCsbhzFdUIifu6_12scraper_core7plugins7globals4httpNtNtNtB9_6common4http10CommonHttpNtNtCs5IYWBWA2NF0_4mlua8userdata8UserData11add_methodsINtNtB1x_8registry16UserDataRegistryBY_EEs0_0Bb_
FN:57,_RNCINvXNtNtNtCsbhzFdUIifu6_12scraper_core7plugins7globals4httpNtNtNtB9_6common4http10CommonHttpNtNtCs5IYWBWA2NF0_4mlua8userdata8UserData11add_methodsINtNtB1x_8registry16UserDataRegistryBY_EEs1_0Bb_
FN:22,_RNCINvXNtNtNtCsbhzFdUIifu6_12scraper_core7plugins7globals4httpNtNtNtB9_6common4http10CommonHttpNtNtCs5IYWBWA2NF0_4mlua8userdata8UserData11add_methodsINtNtB1x_8registry16UserDataRegistryBY_EEs_0Bb_
FN:11,_RNCNCINvXNtNtNtCsbhzFdUIifu6_12scraper_core7plugins7globals4httpNtNtNtBb_6common4http10CommonHttpNtNtCs5IYWBWA2NF0_4mlua8userdata8UserData11add_methodsINtNtB1z_8registry16UserDataRegistryB10_EE00Bd_
FN:38,_RNCNCINvXNtNtNtCsbhzFdUIifu6_12scraper_core7plugins7globals4httpNtNtNtBb_6common4http10CommonHttpNtNtCs5IYWBWA2NF0_4mlua8userdata8UserData11add_methodsINtNtB1z_8registry16UserDataRegistryB10_EEs0_00Bd_
FN:45,_RNCNCINvXNtNtNtCsbhzFdUIifu6_12scraper_core7plugins7globals4httpNtNtNtBb_6common4http10CommonHttpNtNtCs5IYWBWA2NF0_4mlua8userdata8UserData11add_methodsINtNtB1z_8registry16UserDataRegistryB10_EEs0_0s_0Bd_
FN:19,_RNCNCINvXNtNtNtCsbhzFdUIifu6_12scraper_core7plugins7globals4httpNtNtNtBb_6common4http10CommonHttpNtNtCs5IYWBWA2NF0_4mlua8userdata8UserData11add_methodsINtNtB1z_8registry16UserDataRegistryB10_EEs_00Bd_
FN:8,_RINvXNtNtNtCsbhzFdUIifu6_12scraper_core7plugins7globals4httpNtNtNtB7_6common4http10CommonHttpNtNtCs5IYWBWA2NF0_4mlua8userdata8UserData11add_methodsINtNtB1v_8registry16UserDataRegistryBW_EEB9_
FNDA:1,_RNCINvXNtNtNtCsbhzFdUIifu6_12scraper_core7plugins7globals4httpNtNtNtB9_6common4http10CommonHttpNtNtCs5IYWBWA2NF0_4mlua8userdata8UserData11add_methodsINtNtB1x_8registry16UserDataRegistryBY_EE0Bb_
FNDA:0,_RNCINvXNtNtNtCsbhzFdUIifu6_12scraper_core7plugins7globals4httpNtNtNtB9_6common4http10CommonHttpNtNtCs5IYWBWA2NF0_4mlua8userdata8UserData11add_methodsINtNtB1x_8registry16UserDataRegistryBY_EEs0_0Bb_
FNDA:1,_RNCINvXNtNtNtCsbhzFdUIifu6_12scraper_core7plugins7globals4httpNtNtNtB9_6common4http10CommonHttpNtNtCs5IYWBWA2NF0_4mlua8userdata8UserData11add_methodsINtNtB1x_8registry16UserDataRegistryBY_EEs1_0Bb_
FNDA:1,_RNCINvXNtNtNtCsbhzFdUIifu6_12scraper_core7plugins7globals4httpNtNtNtB9_6common4http10CommonHttpNtNtCs5IYWBWA2NF0_4mlua8userdata8UserData11add_methodsINtNtB1x_8registry16UserDataRegistryBY_EEs_0Bb_
FNDA:1,_RNCNCINvXNtNtNtCsbhzFdUIifu6_12scraper_core7plugins7globals4httpNtNtNtBb_6common4http10CommonHttpNtNtCs5IYWBWA2NF0_4mlua8userdata8UserData11add_methodsINtNtB1z_8registry16UserDataRegistryB10_EE00Bd_
FNDA:0,_RNCNCINvXNtNtNtCsbhzFdUIifu6_12scraper_core7plugins7globals4httpNtNtNtBb_6common4http10CommonHttpNtNtCs5IYWBWA2NF0_4mlua8userdata8UserData11add_methodsINtNtB1z_8registry16UserDataRegistryB10_EEs0_00Bd_
FNDA:0,_RNCNCINvXNtNtNtCsbhzFdUIifu6_12scraper_core7plugins7globals4httpNtNtNtBb_6common4http10CommonHttpNtNtCs5IYWBWA2NF0_4mlua8userdata8UserData11add_methodsINtNtB1z_8registry16UserDataRegistryB10_EEs0_0s_0Bd_
FNDA:1,_RNCNCINvXNtNtNtCsbhzFdUIifu6_12scraper_core7plugins7globals4httpNtNtNtBb_6common4http10CommonHttpNtNtCs5IYWBWA2NF0_4mlua8userdata8UserData11add_methodsINtNtB1z_8registry16UserDataRegistryB10_EEs_00Bd_
FNDA:3,_RINvXNtNtNtCsbhzFdUIifu6_12scraper_core7plugins7globals4httpNtNtNtB7_6common4http10CommonHttpNtNtCs5IYWBWA2NF0_4mlua8userdata8UserData11add_methodsINtNtB1v_8registry16UserDataRegistryBW_EEB9_
FNF:9
FNH:6
DA:8,3
DA:9,3
DA:11,1
DA:12,1
DA:13,1
DA:14,2
DA:17,3
DA:19,1
DA:20,1
DA:21,1
DA:22,2
DA:25,3
DA:27,0
DA:28,0
DA:29,0
DA:30,0
DA:31,0
DA:33,0
DA:34,0
DA:35,0
DA:37,0
DA:38,0
DA:39,0
DA:40,0
DA:41,0
DA:43,0
DA:44,0
DA:45,0
DA:46,0
DA:47,0
DA:48,0
DA:49,0
DA:50,0
DA:51,0
DA:53,0
DA:54,0
DA:57,3
DA:58,1
DA:59,1
DA:60,1
DA:61,3
BRF:0
BRH:0
LF:46
LH:20
end_of_record
SF:/mnt/040b9fb6-50c4-4490-87c6-b7dd911435c9/Projects/rust/manga-vault/scrapers/scraper_core/src/plugins/globals/mod.rs
FN:14,_RNCNvNtNtCsbhzFdUIifu6_12scraper_core7plugins7globals4load0B7_
FN:14,_RNvNtNtCsbhzFdUIifu6_12scraper_core7plugins7globals4load
FNDA:0,_RNCNvNtNtCsbhzFdUIifu6_12scraper_core7plugins7globals4load0B7_
FNDA:0,_RNvNtNtCsbhzFdUIifu6_12scraper_core7plugins7globals4load
FNF:2
FNH:0
DA:14,0
DA:15,0
DA:16,0
DA:17,0
DA:18,0
DA:19,0
DA:20,0
DA:22,0
DA:23,0
BRF:0
BRH:0
LF:10
LH:0
end_of_record
SF:/mnt/040b9fb6-50c4-4490-87c6-b7dd911435c9/Projects/rust/manga-vault/scrapers/scraper_core/src/plugins/globals/scraping.rs
FN:10,_RINvXNtNtNtCsbhzFdUIifu6_12scraper_core7plugins7globals8scrapingNtB3_13CustomScraperNtNtCs5IYWBWA2NF0_4mlua8userdata8UserData11add_methodsINtNtB1m_8registry16UserDataRegistryB10_EEB9_
FN:31,_RNCINvXNtNtNtCsbhzFdUIifu6_12scraper_core7plugins7globals8scrapingNtB5_13CustomScraperNtNtCs5IYWBWA2NF0_4mlua8userdata8UserData11add_methodsINtNtB1o_8registry16UserDataRegistryB12_EE0Bb_
FN:43,_RNCINvXNtNtNtCsbhzFdUIifu6_12scraper_core7plugins7globals8scrapingNtB5_13CustomScraperNtNtCs5IYWBWA2NF0_4mlua8userdata8UserData11add_methodsINtNtB1o_8registry16UserDataRegistryB12_EEs0_0Bb_
FN:50,_RNCINvXNtNtNtCsbhzFdUIifu6_12scraper_core7plugins7globals8scrapingNtB5_13CustomScraperNtNtCs5IYWBWA2NF0_4mlua8userdata8UserData11add_methodsINtNtB1o_8registry16UserDataRegistryB12_EEs1_0Bb_
FN:59,_RNCINvXNtNtNtCsbhzFdUIifu6_12scraper_core7plugins7globals8scrapingNtB5_13CustomScraperNtNtCs5IYWBWA2NF0_4mlua8userdata8UserData11add_methodsINtNtB1o_8registry16UserDataRegistryB12_EEs2_0Bb_
FN:37,_RNCINvXNtNtNtCsbhzFdUIifu6_12scraper_core7plugins7globals8scrapingNtB5_13CustomScraperNtNtCs5IYWBWA2NF0_4mlua8userdata8UserData11add_methodsINtNtB1o_8registry16UserDataRegistryB12_EEs_0Bb_
FN:11,_RNCNCINvXNtNtNtCsbhzFdUIifu6_12scraper_core7plugins7globals8scrapingNtB7_13CustomScraperNtNtCs5IYWBWA2NF0_4mlua8userdata8UserData11add_methodsINtNtB1q_8registry16UserDataRegistryB14_EE00Bd_
FN:39,_RNCNCINvXNtNtNtCsbhzFdUIifu6_12scraper_core7plugins7globals8scrapingNtB7_13CustomScraperNtNtCs5IYWBWA2NF0_4mlua8userdata8UserData11add_methodsINtNtB1q_8registry16UserDataRegistryB14_EEs0_00Bd_
FN:45,_RNCNCINvXNtNtNtCsbhzFdUIifu6_12scraper_core7plugins7globals8scrapingNtB7_13CustomScraperNtNtCs5IYWBWA2NF0_4mlua8userdata8UserData11add_methodsINtNtB1q_8registry16UserDataRegistryB14_EEs1_00Bd_
FN:52,_RNCNCINvXNtNtNtCsbhzFdUIifu6_12scraper_core7plugins7globals8scrapingNtB7_13CustomScraperNtNtCs5IYWBWA2NF0_4mlua8userdata8UserData11add_methodsINtNtB1q_8registry16UserDataRegistryB14_EEs2_00Bd_
FN:33,_RNCNCINvXNtNtNtCsbhzFdUIifu6_12scraper_core7plugins7globals8scrapingNtB7_13CustomScraperNtNtCs5IYWBWA2NF0_4mlua8userdata8UserData11add_methodsINtNtB1q_8registry16UserDataRegistryB14_EEs_00Bd_
FN:48,_RNCNCNCINvXNtNtNtCsbhzFdUIifu6_12scraper_core7plugins7globals8scrapingNtB9_13CustomScraperNtNtCs5IYWBWA2NF0_4mlua8userdata8UserData11add_methodsINtNtB1s_8registry16UserDataRegistryB16_EEs1_000Bf_
FNDA:4,_RINvXNtNtNtCsbhzFdUIifu6_12scraper_core7plugins7globals8scrapingNtB3_13CustomScraperNtNtCs5IYWBWA2NF0_4mlua8userdata8UserData11add_methodsINtNtB1m_8registry16UserDataRegistryB10_EEB9_
FNDA:1,_RNCINvXNtNtNtCsbhzFdUIifu6_12scraper_core7plugins7globals8scrapingNtB5_13CustomScraperNtNtCs5IYWBWA2NF0_4mlua8userdata8UserData11add_methodsINtNtB1o_8registry16UserDataRegistryB12_EE0Bb_
FNDA:1,_RNCINvXNtNtNtCsbhzFdUIifu6_12scraper_core7plugins7globals8scrapingNtB5_13CustomScraperNtNtCs5IYWBWA2NF0_4mlua8userdata8UserData11add_methodsINtNtB1o_8registry16UserDataRegistryB12_EEs0_0Bb_
FNDA:1,_RNCINvXNtNtNtCsbhzFdUIifu6_12scraper_core7plugins7globals8scrapingNtB5_13CustomScraperNtNtCs5IYWBWA2NF0_4mlua8userdata8UserData11add_methodsINtNtB1o_8registry16UserDataRegistryB12_EEs1_0Bb_
FNDA:0,_RNCINvXNtNtNtCsbhzFdUIifu6_12scraper_core7plugins7globals8scrapingNtB5_13CustomScraperNtNtCs5IYWBWA2NF0_4mlua8userdata8UserData11add_methodsINtNtB1o_8registry16UserDataRegistryB12_EEs2_0Bb_
FNDA:1,_RNCINvXNtNtNtCsbhzFdUIifu6_12scraper_core7plugins7globals8scrapingNtB5_13CustomScraperNtNtCs5IYWBWA2NF0_4mlua8userdata8UserData11add_methodsINtNtB1o_8registry16UserDataRegistryB12_EEs_0Bb_
FNDA:1,_RNCNCINvXNtNtNtCsbhzFdUIifu6_12scraper_core7plugins7globals8scrapingNtB7_13CustomScraperNtNtCs5IYWBWA2NF0_4mlua8userdata8UserData11add_methodsINtNtB1q_8registry16UserDataRegistryB14_EE00Bd_
FNDA:1,_RNCNCINvXNtNtNtCsbhzFdUIifu6_12scraper_core7plugins7globals8scrapingNtB7_13CustomScraperNtNtCs5IYWBWA2NF0_4mlua8userdata8UserData11add_methodsINtNtB1q_8registry16UserDataRegistryB14_EEs0_00Bd_
FNDA:1,_RNCNCINvXNtNtNtCsbhzFdUIifu6_12scraper_core7plugins7globals8scrapingNtB7_13CustomScraperNtNtCs5IYWBWA2NF0_4mlua8userdata8UserData11add_methodsINtNtB1q_8registry16UserDataRegistryB14_EEs1_00Bd_
FNDA:0,_RNCNCINvXNtNtNtCsbhzFdUIifu6_12scraper_core7plugins7globals8scrapingNtB7_13CustomScraperNtNtCs5IYWBWA2NF0_4mlua8userdata8UserData11add_methodsINtNtB1q_8registry16UserDataRegistryB14_EEs2_00Bd_
FNDA:1,_RNCNCINvXNtNtNtCsbhzFdUIifu6_12scraper_core7plugins7globals8scrapingNtB7_13CustomScraperNtNtCs5IYWBWA2NF0_4mlua8userdata8UserData11add_methodsINtNtB1q_8registry16UserDataRegistryB14_EEs_00Bd_
FNDA:2,_RNCNCNCINvXNtNtNtCsbhzFdUIifu6_12scraper_core7plugins7globals8scrapingNtB9_13CustomScraperNtNtCs5IYWBWA2NF0_4mlua8userdata8UserData11add_methodsINtNtB1s_8registry16UserDataRegistryB16_EEs1_000Bf_
FNF:12
FNH:10
DA:10,4
DA:11,4
DA:12,1
DA:13,1
DA:15,1
DA:18,1
DA:19,1
DA:20,0
DA:21,0
DA:22,0
DA:23,0
DA:24,0
DA:25,0
DA:27,0
DA:30,1
DA:31,2
DA:33,4
DA:34,1
DA:35,1
DA:36,1
DA:37,2
DA:39,4
DA:40,1
DA:41,1
DA:42,1
DA:43,2
DA:45,4
DA:46,1
DA:47,1
DA:48,2
DA:49,1
DA:50,2
DA:52,4
DA:53,0
DA:54,0
DA:55,0
DA:56,0
DA:57,0
DA:59,0
DA:60,4
BRF:0
BRH:0
LF:51
LH:36
end_of_record
SF:/mnt/040b9fb6-50c4-4490-87c6-b7dd911435c9/Projects/rust/manga-vault/scrapers/scraper_core/src/plugins/globals/string.rs
FN:3,_RNvNtNtNtCsbhzFdUIifu6_12scraper_core7plugins7globals6string4load
FN:8,_RNCNCNvNtNtNtCsbhzFdUIifu6_12scraper_core7plugins7globals6string4load00Bb_
FN:7,_RNCNvNtNtNtCsbhzFdUIifu6_12scraper_core7plugins7globals6string4load0B9_
FN:14,_RNCNvNtNtNtCsbhzFdUIifu6_12scraper_core7plugins7globals6string4loads0_0B9_
FN:16,_RNCNvNtNtNtCsbhzFdUIifu6_12scraper_core7plugins7globals6string4loads1_0B9_
FN:19,_RNCNvNtNtNtCsbhzFdUIifu6_12scraper_core7plugins7globals6string4loads2_0B9_
FN:11,_RNCNvNtNtNtCsbhzFdUIifu6_12scraper_core7plugins7globals6string4loads_0B9_
FNDA:5,_RNvNtNtNtCsbhzFdUIifu6_12scraper_core7plugins7globals6string4load
FNDA:2,_RNCNCNvNtNtNtCsbhzFdUIifu6_12scraper_core7plugins7globals6string4load00Bb_
FNDA:1,_RNCNvNtNtNtCsbhzFdUIifu6_12scraper_core7plugins7globals6string4load0B9_
FNDA:1,_RNCNvNtNtNtCsbhzFdUIifu6_12scraper_core7plugins7globals6string4loads0_0B9_
FNDA:1,_RNCNvNtNtNtCsbhzFdUIifu6_12scraper_core7plugins7globals6string4loads1_0B9_
FNDA:1,_RNCNvNtNtNtCsbhzFdUIifu6_12scraper_core7plugins7globals6string4loads2_0B9_
FNDA:1,_RNCNvNtNtNtCsbhzFdUIifu6_12scraper_core7plugins7globals6string4loads_0B9_
FNF:7
FNH:7
DA:3,5
DA:4,5
DA:5,5
DA:7,5
DA:8,2
DA:9,1
DA:10,0
DA:11,5
DA:12,5
DA:14,5
DA:15,0
DA:16,5
DA:17,5
DA:19,5
DA:20,0
DA:22,5
DA:23,5
BRF:0
BRH:0
LF:24
LH:20
end_of_record
SF:/mnt/040b9fb6-50c4-4490-87c6-b7dd911435c9/Projects/rust/manga-vault/scrapers/scraper_core/src/plugins/globals/table.rs
FN:3,_RNvNtNtNtCsbhzFdUIifu6_12scraper_core7plugins7globals5table4load
FN:10,_RNCNCNvNtNtNtCsbhzFdUIifu6_12scraper_core7plugins7globals5table4load00Bb_
FN:12,_RNCNCNvNtNtNtCsbhzFdUIifu6_12scraper_core7plugins7globals5table4load0s_0Bb_
FN:8,_RNCNvNtNtNtCsbhzFdUIifu6_12scraper_core7plugins7globals5table4load0B9_
FNDA:1,_RNvNtNtNtCsbhzFdUIifu6_12scraper_core7plugins7globals5table4load
FNDA:5,_RNCNCNvNtNtNtCsbhzFdUIifu6_12scraper_core7plugins7globals5table4load00Bb_
FNDA:1,_RNCNCNvNtNtNtCsbhzFdUIifu6_12scraper_core7plugins7globals5table4load0s_0Bb_
FNDA:1,_RNCNvNtNtNtCsbhzFdUIifu6_12scraper_core7plugins7globals5table4load0B9_
FNF:4
FNH:4
DA:3,1
DA:4,1
DA:6,1
DA:8,1
DA:9,1
DA:10,5
DA:11,1
DA:12,1
DA:13,1
DA:14,1
DA:15,5
DA:16,5
DA:18,1
DA:19,1
DA:20,1
DA:21,0
DA:23,1
DA:24,1
BRF:0
BRH:0
LF:22
LH:20
end_of_record
SF:/mnt/040b9fb6-50c4-4490-87c6-b7dd911435c9/Projects/rust/manga-vault/scrapers/scraper_core/src/plugins/globals/utils.rs
FN:18,_RNCNvNtNtNtCsbhzFdUIifu6_12scraper_core7plugins7globals5utils21create_response_table0B9_
FN:5,_RNvNtNtNtCsbhzFdUIifu6_12scraper_core7plugins7globals5utils21create_response_table
FNDA:3,_RNCNvNtNtNtCsbhzFdUIifu6_12scraper_core7plugins7globals5utils21create_response_table0B9_
FNDA:3,_RNvNtNtNtCsbhzFdUIifu6_12scraper_core7plugins7globals5utils21create_response_table
FNF:2
FNH:2
DA:5,3
DA:6,3
DA:7,3
DA:8,3
DA:10,3
DA:11,10
DA:12,7
DA:14,3
DA:16,3
DA:18,3
DA:19,3
DA:20,3
DA:21,0
DA:23,3
DA:24,3
DA:25,0
DA:27,3
DA:28,3
BRF:0
BRH:0
LF:20
LH:17
end_of_record
SF:/mnt/040b9fb6-50c4-4490-87c6-b7dd911435c9/Projects/rust/manga-vault/scrapers/scraper_core/src/plugins/lua.rs
FN:70,_RNCNvMNtNtCsbhzFdUIifu6_12scraper_core7plugins3luaNtB4_9LuaPlugin12scrape_manga0B8_
FN:52,_RNCNvMNtNtCsbhzFdUIifu6_12scraper_core7plugins3luaNtB4_9LuaPlugin13scrape_latest0B8_
FN:64,_RNCNvMNtNtCsbhzFdUIifu6_12scraper_core7plugins3luaNtB4_9LuaPlugin13scrape_search0B8_
FN:46,_RNCNvMNtNtCsbhzFdUIifu6_12scraper_core7plugins3luaNtB4_9LuaPlugin14scrape_chapter0B8_
FN:58,_RNCNvMNtNtCsbhzFdUIifu6_12scraper_core7plugins3luaNtB4_9LuaPlugin15scrape_trending0B8_
FN:76,_RNCNvMNtNtCsbhzFdUIifu6_12scraper_core7plugins3luaNtB4_9LuaPlugin18scrape_genres_list0B8_
FN:22,_RNCNvMNtNtCsbhzFdUIifu6_12scraper_core7plugins3luaNtB4_9LuaPlugin3new0B8_
FN:82,_RNCNvMNtNtCsbhzFdUIifu6_12scraper_core7plugins3luaNtB4_9LuaPlugin8get_info0B8_
FN:70,_RNvMNtNtCsbhzFdUIifu6_12scraper_core7plugins3luaNtB2_9LuaPlugin12scrape_manga
FN:52,_RNvMNtNtCsbhzFdUIifu6_12scraper_core7plugins3luaNtB2_9LuaPlugin13scrape_latest
FN:64,_RNvMNtNtCsbhzFdUIifu6_12scraper_core7plugins3luaNtB2_9LuaPlugin13scrape_search
FN:46,_RNvMNtNtCsbhzFdUIifu6_12scraper_core7plugins3luaNtB2_9LuaPlugin14scrape_chapter
FN:58,_RNvMNtNtCsbhzFdUIifu6_12scraper_core7plugins3luaNtB2_9LuaPlugin15scrape_trending
FN:76,_RNvMNtNtCsbhzFdUIifu6_12scraper_core7plugins3luaNtB2_9LuaPlugin18scrape_genres_list
FN:22,_RNvMNtNtCsbhzFdUIifu6_12scraper_core7plugins3luaNtB2_9LuaPlugin3new
FN:82,_RNvMNtNtCsbhzFdUIifu6_12scraper_core7plugins3luaNtB2_9LuaPlugin8get_info
FNDA:0,_RNCNvMNtNtCsbhzFdUIifu6_12scraper_core7plugins3luaNtB4_9LuaPlugin12scrape_manga0B8_
FNDA:0,_RNCNvMNtNtCsbhzFdUIifu6_12scraper_core7plugins3luaNtB4_9LuaPlugin13scrape_latest0B8_
FNDA:0,_RNCNvMNtNtCsbhzFdUIifu6_12scraper_core7plugins3luaNtB4_9LuaPlugin13scrape_search0B8_
FNDA:0,_RNCNvMNtNtCsbhzFdUIifu6_12scraper_core7plugins3luaNtB4_9LuaPlugin14scrape_chapter0B8_
FNDA:0,_RNCNvMNtNtCsbhzFdUIifu6_12scraper_core7plugins3luaNtB4_9LuaPlugin15scrape_trending0B8_
FNDA:0,_RNCNvMNtNtCsbhzFdUIifu6_12scraper_core7plugins3luaNtB4_9LuaPlugin18scrape_genres_list0B8_
FNDA:0,_RNCNvMNtNtCsbhzFdUIifu6_12scraper_core7plugins3luaNtB4_9LuaPlugin3new0B8_
FNDA:0,_RNCNvMNtNtCsbhzFdUIifu6_12scraper_core7plugins3luaNtB4_9LuaPlugin8get_info0B8_
FNDA:0,_RNvMNtNtCsbhzFdUIifu6_12scraper_core7plugins3luaNtB2_9LuaPlugin12scrape_manga
FNDA:0,_RNvMNtNtCsbhzFdUIifu6_12scraper_core7plugins3luaNtB2_9LuaPlugin13scrape_latest
FNDA:0,_RNvMNtNtCsbhzFdUIifu6_12scraper_core7plugins3luaNtB2_9LuaPlugin13scrape_search
FNDA:0,_RNvMNtNtCsbhzFdUIifu6_12scraper_core7plugins3luaNtB2_9LuaPlugin14scrape_chapter
FNDA:0,_RNvMNtNtCsbhzFdUIifu6_12scraper_core7plugins3luaNtB2_9LuaPlugin15scrape_trending
FNDA:0,_RNvMNtNtCsbhzFdUIifu6_12scraper_core7plugins3luaNtB2_9LuaPlugin18scrape_genres_list
FNDA:0,_RNvMNtNtCsbhzFdUIifu6_12scraper_core7plugins3luaNtB2_9LuaPlugin3new
FNDA:0,_RNvMNtNtCsbhzFdUIifu6_12scraper_core7plugins3luaNtB2_9LuaPlugin8get_info
FNF:16
FNH:0
DA:22,0
DA:23,0
DA:24,0
DA:26,0
DA:27,0
DA:28,0
DA:30,0
DA:32,0
DA:33,0
DA:34,0
DA:35,0
DA:36,0
DA:39,0
DA:40,0
DA:41,0
DA:42,0
DA:44,0
DA:46,0
DA:47,0
DA:48,0
DA:49,0
DA:50,0
DA:52,0
DA:53,0
DA:54,0
DA:55,0
DA:56,0
DA:58,0
DA:59,0
DA:60,0
DA:61,0
DA:62,0
DA:64,0
DA:65,0
DA:66,0
DA:67,0
DA:68,0
DA:70,0
DA:71,0
DA:72,0
DA:73,0
DA:74,0
DA:76,0
DA:77,0
DA:78,0
DA:79,0
DA:80,0
DA:82,0
DA:83,0
DA:84,0
DA:85,0
DA:86,0
BRF:0
BRH:0
LF:60
LH:0
end_of_record
SF:/mnt/040b9fb6-50c4-4490-87c6-b7dd911435c9/Projects/rust/manga-vault/scrapers/scraper_core/src/plugins/mod.rs
FN:56,_RNvMNtCsbhzFdUIifu6_12scraper_core7pluginsNtB2_6Plugin12scrape_manga
FN:24,_RNvMNtCsbhzFdUIifu6_12scraper_core7pluginsNtB2_6Plugin13scrape_latest
FN:45,_RNvMNtCsbhzFdUIifu6_12scraper_core7pluginsNtB2_6Plugin13scrape_search
FN:31,_RNvMNtCsbhzFdUIifu6_12scraper_core7pluginsNtB2_6Plugin14scrape_chapter
FN:38,_RNvMNtCsbhzFdUIifu6_12scraper_core7pluginsNtB2_6Plugin15scrape_trending
FN:63,_RNvMNtCsbhzFdUIifu6_12scraper_core7pluginsNtB2_6Plugin18scrape_genres_list
FN:70,_RNvMNtCsbhzFdUIifu6_12scraper_core7pluginsNtB2_6Plugin8get_info
FNDA:0,_RNvMNtCsbhzFdUIifu6_12scraper_core7pluginsNtB2_6Plugin12scrape_manga
FNDA:0,_RNvMNtCsbhzFdUIifu6_12scraper_core7pluginsNtB2_6Plugin13scrape_latest
FNDA:0,_RNvMNtCsbhzFdUIifu6_12scraper_core7pluginsNtB2_6Plugin13scrape_search
FNDA:0,_RNvMNtCsbhzFdUIifu6_12scraper_core7pluginsNtB2_6Plugin14scrape_chapter
FNDA:0,_RNvMNtCsbhzFdUIifu6_12scraper_core7pluginsNtB2_6Plugin15scrape_trending
FNDA:0,_RNvMNtCsbhzFdUIifu6_12scraper_core7pluginsNtB2_6Plugin18scrape_genres_list
FNDA:0,_RNvMNtCsbhzFdUIifu6_12scraper_core7pluginsNtB2_6Plugin8get_info
FNF:7
FNH:0
DA:24,0
DA:25,0
DA:26,0
DA:27,0
DA:29,0
DA:31,0
DA:32,0
DA:33,0
DA:34,0
DA:36,0
DA:38,0
DA:39,0
DA:40,0
DA:41,0
DA:43,0
DA:45,0
DA:46,0
DA:47,0
DA:48,0
DA:49,0
DA:50,0
DA:51,0
DA:52,0
DA:54,0
DA:56,0
DA:57,0
DA:58,0
DA:59,0
DA:61,0
DA:63,0
DA:64,0
DA:65,0
DA:66,0
DA:68,0
DA:70,0
DA:71,0
DA:72,0
DA:73,0
DA:75,0
BRF:0
BRH:0
LF:39
LH:0
end_of_record
SF:/mnt/040b9fb6-50c4-4490-87c6-b7dd911435c9/Projects/rust/manga-vault/scrapers/scraper_core/src/plugins/wasm/bindings.rs
FN:3,_RINvMNvNtNtNtCsbhzFdUIifu6_12scraper_core7plugins4wasm8bindings1__NtB5_11RootIndices3newpEBb_
FN:3,_RINvMNvNtNtNtCsbhzFdUIifu6_12scraper_core7plugins4wasm8bindings1__NtB5_11RootIndices4loadpEBb_
FN:3,_RINvMs3_NtNtNtNtNtNtNtCsbhzFdUIifu6_12scraper_core7plugins4wasm8bindings7exports7scraper5types7scraperNtB6_12GuestIndices4loadpEBk_
FN:3,_RINvMs4_NtNtNtCsbhzFdUIifu6_12scraper_core7plugins4wasm8bindingsINtB6_7RootPrepE11instantiatepEBc_
FN:3,_RINvMs4_NtNtNtNtNtNtNtCsbhzFdUIifu6_12scraper_core7plugins4wasm8bindings7exports7scraper5types7scraperNtB6_5Guest13call_get_infopEBk_
FN:3,_RINvMs4_NtNtNtNtNtNtNtCsbhzFdUIifu6_12scraper_core7plugins4wasm8bindings7exports7scraper5types7scraperNtB6_5Guest17call_scrape_mangapEBk_
FN:3,_RINvMs4_NtNtNtNtNtNtNtCsbhzFdUIifu6_12scraper_core7plugins4wasm8bindings7exports7scraper5types7scraperNtB6_5Guest18call_scrape_latestpEBk_
FN:3,_RINvMs4_NtNtNtNtNtNtNtCsbhzFdUIifu6_12scraper_core7plugins4wasm8bindings7exports7scraper5types7scraperNtB6_5Guest18call_scrape_searchpEBk_
FN:3,_RINvMs4_NtNtNtNtNtNtNtCsbhzFdUIifu6_12scraper_core7plugins4wasm8bindings7exports7scraper5types7scraperNtB6_5Guest19call_scrape_chapterpEBk_
FN:3,_RINvMs4_NtNtNtNtNtNtNtCsbhzFdUIifu6_12scraper_core7plugins4wasm8bindings7exports7scraper5types7scraperNtB6_5Guest20call_scrape_trendingpEBk_
FN:3,_RINvMs4_NtNtNtNtNtNtNtCsbhzFdUIifu6_12scraper_core7plugins4wasm8bindings7exports7scraper5types7scraperNtB6_5Guest23call_scrape_genres_listpEBk_
FN:3,_RINvMs_NvNtNtNtCsbhzFdUIifu6_12scraper_core7plugins4wasm8bindings1__NtB7_4Root11instantiateppEBd_
FN:3,_RINvMs_NvNtNtNtCsbhzFdUIifu6_12scraper_core7plugins4wasm8bindings1__NtB7_4Root13add_to_linkerppEBd_
FN:3,_RINvMs_NvNtNtNtCsbhzFdUIifu6_12scraper_core7plugins4wasm8bindings1__NtB7_4Root3newpEBd_
FN:3,_RINvXs3_NtNtNtNtNtNtCsbhzFdUIifu6_12scraper_core7plugins4wasm8bindings7scraper5types4httpNtB6_6HeaderNtNtNtNtNtCseeAa3dEQVpM_8wasmtime7runtime9component4func5typed5Lower20linear_lower_to_flatpEBi_
FN:3,_RINvXs3_NtNtNtNtNtNtCsbhzFdUIifu6_12scraper_core7plugins4wasm8bindings7scraper5types4httpNtB6_6HeaderNtNtNtNtNtCseeAa3dEQVpM_8wasmtime7runtime9component4func5typed5Lower22linear_lower_to_memorypEBi_
FN:3,_RINvXs6_NtNtNtNtNtNtCsbhzFdUIifu6_12scraper_core7plugins4wasm8bindings7scraper5types4httpNtB6_8ResponseNtNtNtNtNtCseeAa3dEQVpM_8wasmtime7runtime9component4func5typed5Lower20linear_lower_to_flatpEBi_
FN:3,_RINvXs6_NtNtNtNtNtNtCsbhzFdUIifu6_12scraper_core7plugins4wasm8bindings7scraper5types4httpNtB6_8ResponseNtNtNtNtNtCseeAa3dEQVpM_8wasmtime7runtime9component4func5typed5Lower22linear_lower_to_memorypEBi_
FN:3,_RINvXs6_NtNtNtNtNtNtNtCsbhzFdUIifu6_12scraper_core7plugins4wasm8bindings7exports7scraper5types7scraperNtB6_9MangaItemNtNtNtNtNtCseeAa3dEQVpM_8wasmtime7runtime9component4func5typed5Lower20linear_lower_to_flatpEBk_
FN:3,_RINvXs6_NtNtNtNtNtNtNtCsbhzFdUIifu6_12scraper_core7plugins4wasm8bindings7exports7scraper5types7scraperNtB6_9MangaItemNtNtNtNtNtCseeAa3dEQVpM_8wasmtime7runtime9component4func5typed5Lower22linear_lower_to_memorypEBk_
FN:3,_RINvXs9_NtNtNtNtNtNtNtCsbhzFdUIifu6_12scraper_core7plugins4wasm8bindings7exports7scraper5types7scraperNtB6_7ChapterNtNtNtNtNtCseeAa3dEQVpM_8wasmtime7runtime9component4func5typed5Lower20linear_lower_to_flatpEBk_
FN:3,_RINvXs9_NtNtNtNtNtNtNtCsbhzFdUIifu6_12scraper_core7plugins4wasm8bindings7exports7scraper5types7scraperNtB6_7ChapterNtNtNtNtNtCseeAa3dEQVpM_8wasmtime7runtime9component4func5typed5Lower22linear_lower_to_memorypEBk_
FN:3,_RINvXsc_NtNtNtNtNtNtNtCsbhzFdUIifu6_12scraper_core7plugins4wasm8bindings7exports7scraper5types7scraperNtB6_9MangaPageNtNtNtNtNtCseeAa3dEQVpM_8wasmtime7runtime9component4func5typed5Lower20linear_lower_to_flatpEBk_
FN:3,_RINvXsc_NtNtNtNtNtNtNtCsbhzFdUIifu6_12scraper_core7plugins4wasm8bindings7exports7scraper5types7scraperNtB6_9MangaPageNtNtNtNtNtCseeAa3dEQVpM_8wasmtime7runtime9component4func5typed5Lower22linear_lower_to_memorypEBk_
FN:3,_RINvXsf_NtNtNtNtNtNtNtCsbhzFdUIifu6_12scraper_core7plugins4wasm8bindings7exports7scraper5types7scraperNtB6_5GenreNtNtNtNtNtCseeAa3dEQVpM_8wasmtime7runtime9component4func5typed5Lower20linear_lower_to_flatpEBk_
FN:3,_RINvXsf_NtNtNtNtNtNtNtCsbhzFdUIifu6_12scraper_core7plugins4wasm8bindings7exports7scraper5types7scraperNtB6_5GenreNtNtNtNtNtCseeAa3dEQVpM_8wasmtime7runtime9component4func5typed5Lower22linear_lower_to_memorypEBk_
FN:3,_RINvXsi_NtNtNtNtNtNtNtCsbhzFdUIifu6_12scraper_core7plugins4wasm8bindings7exports7scraper5types7scraperNtB6_11ScraperInfoNtNtNtNtNtCseeAa3dEQVpM_8wasmtime7runtime9component4func5typed5Lower20linear_lower_to_flatpEBk_
FN:3,_RINvXsi_NtNtNtNtNtNtNtCsbhzFdUIifu6_12scraper_core7plugins4wasm8bindings7exports7scraper5types7scraperNtB6_11ScraperInfoNtNtNtNtNtCseeAa3dEQVpM_8wasmtime7runtime9component4func5typed5Lower22linear_lower_to_memorypEBk_
FN:3,_RNCINvMs5_NtNtNtCsbhzFdUIifu6_12scraper_core7plugins4wasm8bindingsINtB8_7RootPrepE17instantiate_asyncpE0Be_
FN:3,_RNCINvMs_NvNtNtNtCsbhzFdUIifu6_12scraper_core7plugins4wasm8bindings1__NtB9_4Root17instantiate_asyncppE0Bf_
FN:3,_RNvMs4_NtNtNtCsbhzFdUIifu6_12scraper_core7plugins4wasm8bindingsINtB5_7RootPrepE3newBb_
FN:6,_RNvXNtNtNtCsbhzFdUIifu6_12scraper_core7plugins4wasm8bindingsNtCs8OLOgmeY8J7_13scraper_types9MangaItemINtNtCs9bgXZFP4km6_4core7convert4FromNtNtNtNtNtB2_7exports7scraper5types7scraper9MangaItemE4from
FN:35,_RNvXs0_NtNtNtCsbhzFdUIifu6_12scraper_core7plugins4wasm8bindingsNtCs8OLOgmeY8J7_13scraper_types5GenreINtNtCs9bgXZFP4km6_4core7convert4FromNtNtNtNtNtB5_7exports7scraper5types7scraper5GenreE4from
FN:44,_RNvXs1_NtNtNtCsbhzFdUIifu6_12scraper_core7plugins4wasm8bindingsNtCs8OLOgmeY8J7_13scraper_types7ChapterINtNtCs9bgXZFP4km6_4core7convert4FromNtNtNtNtNtB5_7exports7scraper5types7scraper7ChapterE4from
FN:55,_RNvXs2_NtNtNtCsbhzFdUIifu6_12scraper_core7plugins4wasm8bindingsNtCs8OLOgmeY8J7_13scraper_types11ScraperInfoINtNtCs9bgXZFP4km6_4core7convert4FromNtNtNtNtNtB5_7exports7scraper5types7scraper11ScraperInfoE4from
FN:3,_RNvXs2_NtNtNtNtNtNtCsbhzFdUIifu6_12scraper_core7plugins4wasm8bindings7scraper5types4httpNtB5_6HeaderNtNtNtNtNtCseeAa3dEQVpM_8wasmtime7runtime9component4func5typed4Lift21linear_lift_from_flatBh_
FN:3,_RNvXs2_NtNtNtNtNtNtCsbhzFdUIifu6_12scraper_core7plugins4wasm8bindings7scraper5types4httpNtB5_6HeaderNtNtNtNtNtCseeAa3dEQVpM_8wasmtime7runtime9component4func5typed4Lift23linear_lift_from_memoryBh_
FN:3,_RNvXs5_NtNtNtNtNtNtCsbhzFdUIifu6_12scraper_core7plugins4wasm8bindings7scraper5types4httpNtB5_8ResponseNtNtNtNtNtCseeAa3dEQVpM_8wasmtime7runtime9component4func5typed4Lift21linear_lift_from_flatBh_
FN:3,_RNvXs5_NtNtNtNtNtNtCsbhzFdUIifu6_12scraper_core7plugins4wasm8bindings7scraper5types4httpNtB5_8ResponseNtNtNtNtNtCseeAa3dEQVpM_8wasmtime7runtime9component4func5typed4Lift23linear_lift_from_memoryBh_
FN:3,_RNvXs5_NtNtNtNtNtNtNtCsbhzFdUIifu6_12scraper_core7plugins4wasm8bindings7exports7scraper5types7scraperNtB5_9MangaItemNtNtNtNtNtCseeAa3dEQVpM_8wasmtime7runtime9component4func5typed4Lift21linear_lift_from_flatBj_
FN:3,_RNvXs5_NtNtNtNtNtNtNtCsbhzFdUIifu6_12scraper_core7plugins4wasm8bindings7exports7scraper5types7scraperNtB5_9MangaItemNtNtNtNtNtCseeAa3dEQVpM_8wasmtime7runtime9component4func5typed4Lift23linear_lift_from_memoryBj_
FN:3,_RNvXs8_NtNtNtNtNtNtNtCsbhzFdUIifu6_12scraper_core7plugins4wasm8bindings7exports7scraper5types7scraperNtB5_7ChapterNtNtNtNtNtCseeAa3dEQVpM_8wasmtime7runtime9component4func5typed4Lift21linear_lift_from_flatBj_
FN:3,_RNvXs8_NtNtNtNtNtNtNtCsbhzFdUIifu6_12scraper_core7plugins4wasm8bindings7exports7scraper5types7scraperNtB5_7ChapterNtNtNtNtNtCseeAa3dEQVpM_8wasmtime7runtime9component4func5typed4Lift23linear_lift_from_memoryBj_
FN:16,_RNvXs_NtNtNtCsbhzFdUIifu6_12scraper_core7plugins4wasm8bindingsNtCs8OLOgmeY8J7_13scraper_types9MangaPageINtNtCs9bgXZFP4km6_4core7convert4FromNtNtNtNtNtB4_7exports7scraper5types7scraper9MangaPageE4from
FN:3,_RNvXsb_NtNtNtNtNtNtNtCsbhzFdUIifu6_12scraper_core7plugins4wasm8bindings7exports7scraper5types7scraperNtB5_9MangaPageNtNtNtNtNtCseeAa3dEQVpM_8wasmtime7runtime9component4func5typed4Lift21linear_lift_from_flatBj_
FN:3,_RNvXsb_NtNtNtNtNtNtNtCsbhzFdUIifu6_12scraper_core7plugins4wasm8bindings7exports7scraper5types7scraperNtB5_9MangaPageNtNtNtNtNtCseeAa3dEQVpM_8wasmtime7runtime9component4func5typed4Lift23linear_lift_from_memoryBj_
FN:3,_RNvXse_NtNtNtNtNtNtNtCsbhzFdUIifu6_12scraper_core7plugins4wasm8bindings7exports7scraper5types7scraperNtB5_5GenreNtNtNtNtNtCseeAa3dEQVpM_8wasmtime7runtime9component4func5typed4Lift21linear_lift_from_flatBj_
FN:3,_RNvXse_NtNtNtNtNtNtNtCsbhzFdUIifu6_12scraper_core7plugins4wasm8bindings7exports7scraper5types7scraperNtB5_5GenreNtNtNtNtNtCseeAa3dEQVpM_8wasmtime7runtime9component4func5typed4Lift23linear_lift_from_memoryBj_
FN:3,_RNvXsh_NtNtNtNtNtNtNtCsbhzFdUIifu6_12scraper_core7plugins4wasm8bindings7exports7scraper5types7scraperNtB5_11ScraperInfoNtNtNtNtNtCseeAa3dEQVpM_8wasmtime7runtime9component4func5typed4Lift21linear_lift_from_flatBj_
FN:3,_RNvXsh_NtNtNtNtNtNtNtCsbhzFdUIifu6_12scraper_core7plugins4wasm8bindings7exports7scraper5types7scraperNtB5_11ScraperInfoNtNtNtNtNtCseeAa3dEQVpM_8wasmtime7runtime9component4func5typed4Lift23linear_lift_from_memoryBj_
FNDA:0,_RINvMNvNtNtNtCsbhzFdUIifu6_12scraper_core7plugins4wasm8bindings1__NtB5_11RootIndices3newpEBb_
FNDA:0,_RINvMNvNtNtNtCsbhzFdUIifu6_12scraper_core7plugins4wasm8bindings1__NtB5_11RootIndices4loadpEBb_
FNDA:0,_RINvMs3_NtNtNtNtNtNtNtCsbhzFdUIifu6_12scraper_core7plugins4wasm8bindings7exports7scraper5types7scraperNtB6_12GuestIndices4loadpEBk_
FNDA:0,_RINvMs4_NtNtNtCsbhzFdUIifu6_12scraper_core7plugins4wasm8bindingsINtB6_7RootPrepE11instantiatepEBc_
FNDA:0,_RINvMs4_NtNtNtNtNtNtNtCsbhzFdUIifu6_12scraper_core7plugins4wasm8bindings7exports7scraper5types7scraperNtB6_5Guest13call_get_infopEBk_
FNDA:0,_RINvMs4_NtNtNtNtNtNtNtCsbhzFdUIifu6_12scraper_core7plugins4wasm8bindings7exports7scraper5types7scraperNtB6_5Guest17call_scrape_mangapEBk_
FNDA:0,_RINvMs4_NtNtNtNtNtNtNtCsbhzFdUIifu6_12scraper_core7plugins4wasm8bindings7exports7scraper5types7scraperNtB6_5Guest18call_scrape_latestpEBk_
FNDA:0,_RINvMs4_NtNtNtNtNtNtNtCsbhzFdUIifu6_12scraper_core7plugins4wasm8bindings7exports7scraper5types7scraperNtB6_5Guest18call_scrape_searchpEBk_
FNDA:0,_RINvMs4_NtNtNtNtNtNtNtCsbhzFdUIifu6_12scraper_core7plugins4wasm8bindings7exports7scraper5types7scraperNtB6_5Guest19call_scrape_chapterpEBk_
FNDA:0,_RINvMs4_NtNtNtNtNtNtNtCsbhzFdUIifu6_12scraper_core7plugins4wasm8bindings7exports7scraper5types7scraperNtB6_5Guest20call_scrape_trendingpEBk_
FNDA:0,_RINvMs4_NtNtNtNtNtNtNtCsbhzFdUIifu6_12scraper_core7plugins4wasm8bindings7exports7scraper5types7scraperNtB6_5Guest23call_scrape_genres_listpEBk_
FNDA:0,_RINvMs_NvNtNtNtCsbhzFdUIifu6_12scraper_core7plugins4wasm8bindings1__NtB7_4Root11instantiateppEBd_
FNDA:0,_RINvMs_NvNtNtNtCsbhzFdUIifu6_12scraper_core7plugins4wasm8bindings1__NtB7_4Root13add_to_linkerppEBd_
FNDA:0,_RINvMs_NvNtNtNtCsbhzFdUIifu6_12scraper_core7plugins4wasm8bindings1__NtB7_4Root3newpEBd_
FNDA:0,_RINvXs3_NtNtNtNtNtNtCsbhzFdUIifu6_12scraper_core7plugins4wasm8bindings7scraper5types4httpNtB6_6HeaderNtNtNtNtNtCseeAa3dEQVpM_8wasmtime7runtime9component4func5typed5Lower20linear_lower_to_flatpEBi_
FNDA:0,_RINvXs3_NtNtNtNtNtNtCsbhzFdUIifu6_12scraper_core7plugins4wasm8bindings7scraper5types4httpNtB6_6HeaderNtNtNtNtNtCseeAa3dEQVpM_8wasmtime7runtime9component4func5typed5Lower22linear_lower_to_memorypEBi_
FNDA:0,_RINvXs6_NtNtNtNtNtNtCsbhzFdUIifu6_12scraper_core7plugins4wasm8bindings7scraper5types4httpNtB6_8ResponseNtNtNtNtNtCseeAa3dEQVpM_8wasmtime7runtime9component4func5typed5Lower20linear_lower_to_flatpEBi_
FNDA:0,_RINvXs6_NtNtNtNtNtNtCsbhzFdUIifu6_12scraper_core7plugins4wasm8bindings7scraper5types4httpNtB6_8ResponseNtNtNtNtNtCseeAa3dEQVpM_8wasmtime7runtime9component4func5typed5Lower22linear_lower_to_memorypEBi_
FNDA:0,_RINvXs6_NtNtNtNtNtNtNtCsbhzFdUIifu6_12scraper_core7plugins4wasm8bindings7exports7scraper5types7scraperNtB6_9MangaItemNtNtNtNtNtCseeAa3dEQVpM_8wasmtime7runtime9component4func5typed5Lower20linear_lower_to_flatpEBk_
FNDA:0,_RINvXs6_NtNtNtNtNtNtNtCsbhzFdUIifu6_12scraper_core7plugins4wasm8bindings7exports7scraper5types7scraperNtB6_9MangaItemNtNtNtNtNtCseeAa3dEQVpM_8wasmtime7runtime9component4func5typed5Lower22linear_lower_to_memorypEBk_
FNDA:0,_RINvXs9_NtNtNtNtNtNtNtCsbhzFdUIifu6_12scraper_core7plugins4wasm8bindings7exports7scraper5types7scraperNtB6_7ChapterNtNtNtNtNtCseeAa3dEQVpM_8wasmtime7runtime9component4func5typed5Lower20linear_lower_to_flatpEBk_
FNDA:0,_RINvXs9_NtNtNtNtNtNtNtCsbhzFdUIifu6_12scraper_core7plugins4wasm8bindings7exports7scraper5types7scraperNtB6_7ChapterNtNtNtNtNtCseeAa3dEQVpM_8wasmtime7runtime9component4func5typed5Lower22linear_lower_to_memorypEBk_
FNDA:0,_RINvXsc_NtNtNtNtNtNtNtCsbhzFdUIifu6_12scraper_core7plugins4wasm8bindings7exports7scraper5types7scraperNtB6_9MangaPageNtNtNtNtNtCseeAa3dEQVpM_8wasmtime7runtime9component4func5typed5Lower20linear_lower_to_flatpEBk_
FNDA:0,_RINvXsc_NtNtNtNtNtNtNtCsbhzFdUIifu6_12scraper_core7plugins4wasm8bindings7exports7scraper5types7scraperNtB6_9MangaPageNtNtNtNtNtCseeAa3dEQVpM_8wasmtime7runtime9component4func5typed5Lower22linear_lower_to_memorypEBk_
FNDA:0,_RINvXsf_NtNtNtNtNtNtNtCsbhzFdUIifu6_12scraper_core7plugins4wasm8bindings7exports7scraper5types7scraperNtB6_5GenreNtNtNtNtNtCseeAa3dEQVpM_8wasmtime7runtime9component4func5typed5Lower20linear_lower_to_flatpEBk_
FNDA:0,_RINvXsf_NtNtNtNtNtNtNtCsbhzFdUIifu6_12scraper_core7plugins4wasm8bindings7exports7scraper5types7scraperNtB6_5GenreNtNtNtNtNtCseeAa3dEQVpM_8wasmtime7runtime9component4func5typed5Lower22linear_lower_to_memorypEBk_
FNDA:0,_RINvXsi_NtNtNtNtNtNtNtCsbhzFdUIifu6_12scraper_core7plugins4wasm8bindings7exports7scraper5types7scraperNtB6_11ScraperInfoNtNtNtNtNtCseeAa3dEQVpM_8wasmtime7runtime9component4func5typed5Lower20linear_lower_to_flatpEBk_
FNDA:0,_RINvXsi_NtNtNtNtNtNtNtCsbhzFdUIifu6_12scraper_core7plugins4wasm8bindings7exports7scraper5types7scraperNtB6_11ScraperInfoNtNtNtNtNtCseeAa3dEQVpM_8wasmtime7runtime9component4func5typed5Lower22linear_lower_to_memorypEBk_
FNDA:0,_RNCINvMs5_NtNtNtCsbhzFdUIifu6_12scraper_core7plugins4wasm8bindingsINtB8_7RootPrepE17instantiate_asyncpE0Be_
FNDA:0,_RNCINvMs_NvNtNtNtCsbhzFdUIifu6_12scraper_core7plugins4wasm8bindings1__NtB9_4Root17instantiate_asyncppE0Bf_
FNDA:0,_RNvMs4_NtNtNtCsbhzFdUIifu6_12scraper_core7plugins4wasm8bindingsINtB5_7RootPrepE3newBb_
FNDA:0,_RNvXNtNtNtCsbhzFdUIifu6_12scraper_core7plugins4wasm8bindingsNtCs8OLOgmeY8J7_13scraper_types9MangaItemINtNtCs9bgXZFP4km6_4core7convert4FromNtNtNtNtNtB2_7exports7scraper5types7scraper9MangaItemE4from
FNDA:0,_RNvXs0_NtNtNtCsbhzFdUIifu6_12scraper_core7plugins4wasm8bindingsNtCs8OLOgmeY8J7_13scraper_types5GenreINtNtCs9bgXZFP4km6_4core7convert4FromNtNtNtNtNtB5_7exports7scraper5types7scraper5GenreE4from
FNDA:0,_RNvXs1_NtNtNtCsbhzFdUIifu6_12scraper_core7plugins4wasm8bindingsNtCs8OLOgmeY8J7_13scraper_types7ChapterINtNtCs9bgXZFP4km6_4core7convert4FromNtNtNtNtNtB5_7exports7scraper5types7scraper7ChapterE4from
FNDA:0,_RNvXs2_NtNtNtCsbhzFdUIifu6_12scraper_core7plugins4wasm8bindingsNtCs8OLOgmeY8J7_13scraper_types11ScraperInfoINtNtCs9bgXZFP4km6_4core7convert4FromNtNtNtNtNtB5_7exports7scraper5types7scraper11ScraperInfoE4from
FNDA:0,_RNvXs2_NtNtNtNtNtNtCsbhzFdUIifu6_12scraper_core7plugins4wasm8bindings7scraper5types4httpNtB5_6HeaderNtNtNtNtNtCseeAa3dEQVpM_8wasmtime7runtime9component4func5typed4Lift21linear_lift_from_flatBh_
FNDA:0,_RNvXs2_NtNtNtNtNtNtCsbhzFdUIifu6_12scraper_core7plugins4wasm8bindings7scraper5types4httpNtB5_6HeaderNtNtNtNtNtCseeAa3dEQVpM_8wasmtime7runtime9component4func5typed4Lift23linear_lift_from_memoryBh_
FNDA:0,_RNvXs5_NtNtNtNtNtNtCsbhzFdUIifu6_12scraper_core7plugins4wasm8bindings7scraper5types4httpNtB5_8ResponseNtNtNtNtNtCseeAa3dEQVpM_8wasmtime7runtime9component4func5typed4Lift21linear_lift_from_flatBh_
FNDA:0,_RNvXs5_NtNtNtNtNtNtCsbhzFdUIifu6_12scraper_core7plugins4wasm8bindings7scraper5types4httpNtB5_8ResponseNtNtNtNtNtCseeAa3dEQVpM_8wasmtime7runtime9component4func5typed4Lift23linear_lift_from_memoryBh_
FNDA:0,_RNvXs5_NtNtNtNtNtNtNtCsbhzFdUIifu6_12scraper_core7plugins4wasm8bindings7exports7scraper5types7scraperNtB5_9MangaItemNtNtNtNtNtCseeAa3dEQVpM_8wasmtime7runtime9component4func5typed4Lift21linear_lift_from_flatBj_
FNDA:0,_RNvXs5_NtNtNtNtNtNtNtCsbhzFdUIifu6_12scraper_core7plugins4wasm8bindings7exports7scraper5types7scraperNtB5_9MangaItemNtNtNtNtNtCseeAa3dEQVpM_8wasmtime7runtime9component4func5typed4Lift23linear_lift_from_memoryBj_
FNDA:0,_RNvXs8_NtNtNtNtNtNtNtCsbhzFdUIifu6_12scraper_core7plugins4wasm8bindings7exports7scraper5types7scraperNtB5_7ChapterNtNtNtNtNtCseeAa3dEQVpM_8wasmtime7runtime9component4func5typed4Lift21linear_lift_from_flatBj_
FNDA:0,_RNvXs8_NtNtNtNtNtNtNtCsbhzFdUIifu6_12scraper_core7plugins4wasm8bindings7exports7scraper5types7scraperNtB5_7ChapterNtNtNtNtNtCseeAa3dEQVpM_8wasmtime7runtime9component4func5typed4Lift23linear_lift_from_memoryBj_
FNDA:0,_RNvXs_NtNtNtCsbhzFdUIifu6_12scraper_core7plugins4wasm8bindingsNtCs8OLOgmeY8J7_13scraper_types9MangaPageINtNtCs9bgXZFP4km6_4core7convert4FromNtNtNtNtNtB4_7exports7scraper5types7scraper9MangaPageE4from
FNDA:0,_RNvXsb_NtNtNtNtNtNtNtCsbhzFdUIifu6_12scraper_core7plugins4wasm8bindings7exports7scraper5types7scraperNtB5_9MangaPageNtNtNtNtNtCseeAa3dEQVpM_8wasmtime7runtime9component4func5typed4Lift21linear_lift_from_flatBj_
FNDA:0,_RNvXsb_NtNtNtNtNtNtNtCsbhzFdUIifu6_12scraper_core7plugins4wasm8bindings7exports7scraper5types7scraperNtB5_9MangaPageNtNtNtNtNtCseeAa3dEQVpM_8wasmtime7runtime9component4func5typed4Lift23linear_lift_from_memoryBj_
FNDA:0,_RNvXse_NtNtNtNtNtNtNtCsbhzFdUIifu6_12scraper_core7plugins4wasm8bindings7exports7scraper5types7scraperNtB5_5GenreNtNtNtNtNtCseeAa3dEQVpM_8wasmtime7runtime9component4func5typed4Lift21linear_lift_from_flatBj_
FNDA:0,_RNvXse_NtNtNtNtNtNtNtCsbhzFdUIifu6_12scraper_core7plugins4wasm8bindings7exports7scraper5types7scraperNtB5_5GenreNtNtNtNtNtCseeAa3dEQVpM_8wasmtime7runtime9component4func5typed4Lift23linear_lift_from_memoryBj_
FNDA:0,_RNvXsh_NtNtNtNtNtNtNtCsbhzFdUIifu6_12scraper_core7plugins4wasm8bindings7exports7scraper5types7scraperNtB5_11ScraperInfoNtNtNtNtNtCseeAa3dEQVpM_8wasmtime7runtime9component4func5typed4Lift21linear_lift_from_flatBj_
FNDA:0,_RNvXsh_NtNtNtNtNtNtNtCsbhzFdUIifu6_12scraper_core7plugins4wasm8bindings7exports7scraper5types7scraperNtB5_11ScraperInfoNtNtNtNtNtCseeAa3dEQVpM_8wasmtime7runtime9component4func5typed4Lift23linear_lift_from_memoryBj_
FNF:6
FNH:0
DA:3,0
DA:6,0
DA:7,0
DA:8,0
DA:9,0
DA:10,0
DA:11,0
DA:12,0
DA:16,0
DA:17,0
DA:18,0
DA:19,0
DA:20,0
DA:21,0
DA:22,0
DA:23,0
DA:24,0
DA:25,0
DA:26,0
DA:27,0
DA:28,0
DA:29,0
DA:30,0
DA:31,0
DA:35,0
DA:36,0
DA:37,0
DA:38,0
DA:39,0
DA:40,0
DA:44,0
DA:45,0
DA:46,0
DA:47,0
DA:48,0
DA:49,0
DA:50,0
DA:51,0
DA:55,0
DA:56,0
DA:57,0
DA:58,0
DA:59,0
DA:60,0
DA:61,0
DA:62,0
DA:63,0
DA:64,0
BRF:0
BRH:0
LF:48
LH:0
end_of_record
SF:/mnt/040b9fb6-50c4-4490-87c6-b7dd911435c9/Projects/rust/manga-vault/scrapers/scraper_core/src/plugins/wasm/mod.rs
FN:122,_RNCNCNCNvMNtNtCsbhzFdUIifu6_12scraper_core7plugins4wasmNtB8_10WasmPlugin12scrape_manga0s_00Bc_
FN:123,_RNCNCNCNvMNtNtCsbhzFdUIifu6_12scraper_core7plugins4wasmNtB8_10WasmPlugin12scrape_manga0s_0s_0Bc_
FN:74,_RNCNCNCNvMNtNtCsbhzFdUIifu6_12scraper_core7plugins4wasmNtB8_10WasmPlugin13scrape_latest0s_00Bc_
FN:75,_RNCNCNCNvMNtNtCsbhzFdUIifu6_12scraper_core7plugins4wasmNtB8_10WasmPlugin13scrape_latest0s_0s_0Bc_
FN:106,_RNCNCNCNvMNtNtCsbhzFdUIifu6_12scraper_core7plugins4wasmNtB8_10WasmPlugin13scrape_search0s_00Bc_
FN:107,_RNCNCNCNvMNtNtCsbhzFdUIifu6_12scraper_core7plugins4wasmNtB8_10WasmPlugin13scrape_search0s_0s_0Bc_
FN:58,_RNCNCNCNvMNtNtCsbhzFdUIifu6_12scraper_core7plugins4wasmNtB8_10WasmPlugin14scrape_chapter0s_00Bc_
FN:59,_RNCNCNCNvMNtNtCsbhzFdUIifu6_12scraper_core7plugins4wasmNtB8_10WasmPlugin14scrape_chapter0s_0s_0Bc_
FN:90,_RNCNCNCNvMNtNtCsbhzFdUIifu6_12scraper_core7plugins4wasmNtB8_10WasmPlugin15scrape_trending0s_00Bc_
FN:91,_RNCNCNCNvMNtNtCsbhzFdUIifu6_12scraper_core7plugins4wasmNtB8_10WasmPlugin15scrape_trending0s_0s_0Bc_
FN:138,_RNCNCNCNvMNtNtCsbhzFdUIifu6_12scraper_core7plugins4wasmNtB8_10WasmPlugin18scrape_genres_list0s_00Bc_
FN:139,_RNCNCNCNvMNtNtCsbhzFdUIifu6_12scraper_core7plugins4wasmNtB8_10WasmPlugin18scrape_genres_list0s_0s_0Bc_
FN:154,_RNCNCNCNvMNtNtCsbhzFdUIifu6_12scraper_core7plugins4wasmNtB8_10WasmPlugin8get_info0s_00Bc_
FN:115,_RNCNCNvMNtNtCsbhzFdUIifu6_12scraper_core7plugins4wasmNtB6_10WasmPlugin12scrape_manga00Ba_
FN:118,_RNCNCNvMNtNtCsbhzFdUIifu6_12scraper_core7plugins4wasmNtB6_10WasmPlugin12scrape_manga0s_0Ba_
FN:67,_RNCNCNvMNtNtCsbhzFdUIifu6_12scraper_core7plugins4wasmNtB6_10WasmPlugin13scrape_latest00Ba_
FN:70,_RNCNCNvMNtNtCsbhzFdUIifu6_12scraper_core7plugins4wasmNtB6_10WasmPlugin13scrape_latest0s_0Ba_
FN:99,_RNCNCNvMNtNtCsbhzFdUIifu6_12scraper_core7plugins4wasmNtB6_10WasmPlugin13scrape_search00Ba_
FN:102,_RNCNCNvMNtNtCsbhzFdUIifu6_12scraper_core7plugins4wasmNtB6_10WasmPlugin13scrape_search0s_0Ba_
FN:51,_RNCNCNvMNtNtCsbhzFdUIifu6_12scraper_core7plugins4wasmNtB6_10WasmPlugin14scrape_chapter00Ba_
FN:54,_RNCNCNvMNtNtCsbhzFdUIifu6_12scraper_core7plugins4wasmNtB6_10WasmPlugin14scrape_chapter0s_0Ba_
FN:83,_RNCNCNvMNtNtCsbhzFdUIifu6_12scraper_core7plugins4wasmNtB6_10WasmPlugin15scrape_trending00Ba_
FN:86,_RNCNCNvMNtNtCsbhzFdUIifu6_12scraper_core7plugins4wasmNtB6_10WasmPlugin15scrape_trending0s_0Ba_
FN:131,_RNCNCNvMNtNtCsbhzFdUIifu6_12scraper_core7plugins4wasmNtB6_10WasmPlugin18scrape_genres_list00Ba_
FN:134,_RNCNCNvMNtNtCsbhzFdUIifu6_12scraper_core7plugins4wasmNtB6_10WasmPlugin18scrape_genres_list0s_0Ba_
FN:147,_RNCNCNvMNtNtCsbhzFdUIifu6_12scraper_core7plugins4wasmNtB6_10WasmPlugin8get_info00Ba_
FN:150,_RNCNCNvMNtNtCsbhzFdUIifu6_12scraper_core7plugins4wasmNtB6_10WasmPlugin8get_info0s_0Ba_
FN:112,_RNCNvMNtNtCsbhzFdUIifu6_12scraper_core7plugins4wasmNtB4_10WasmPlugin12scrape_manga0B8_
FN:64,_RNCNvMNtNtCsbhzFdUIifu6_12scraper_core7plugins4wasmNtB4_10WasmPlugin13scrape_latest0B8_
FN:96,_RNCNvMNtNtCsbhzFdUIifu6_12scraper_core7plugins4wasmNtB4_10WasmPlugin13scrape_search0B8_
FN:48,_RNCNvMNtNtCsbhzFdUIifu6_12scraper_core7plugins4wasmNtB4_10WasmPlugin14scrape_chapter0B8_
FN:80,_RNCNvMNtNtCsbhzFdUIifu6_12scraper_core7plugins4wasmNtB4_10WasmPlugin15scrape_trending0B8_
FN:128,_RNCNvMNtNtCsbhzFdUIifu6_12scraper_core7plugins4wasmNtB4_10WasmPlugin18scrape_genres_list0B8_
FN:26,_RNCNvMNtNtCsbhzFdUIifu6_12scraper_core7plugins4wasmNtB4_10WasmPlugin3new0B8_
FN:144,_RNCNvMNtNtCsbhzFdUIifu6_12scraper_core7plugins4wasmNtB4_10WasmPlugin8get_info0B8_
FN:112,_RNvMNtNtCsbhzFdUIifu6_12scraper_core7plugins4wasmNtB2_10WasmPlugin12scrape_manga
FN:64,_RNvMNtNtCsbhzFdUIifu6_12scraper_core7plugins4wasmNtB2_10WasmPlugin13scrape_latest
FN:96,_RNvMNtNtCsbhzFdUIifu6_12scraper_core7plugins4wasmNtB2_10WasmPlugin13scrape_search
FN:48,_RNvMNtNtCsbhzFdUIifu6_12scraper_core7plugins4wasmNtB2_10WasmPlugin14scrape_chapter
FN:80,_RNvMNtNtCsbhzFdUIifu6_12scraper_core7plugins4wasmNtB2_10WasmPlugin15scrape_trending
FN:128,_RNvMNtNtCsbhzFdUIifu6_12scraper_core7plugins4wasmNtB2_10WasmPlugin18scrape_genres_list
FN:22,_RNvMNtNtCsbhzFdUIifu6_12scraper_core7plugins4wasmNtB2_10WasmPlugin3new
FN:144,_RNvMNtNtCsbhzFdUIifu6_12scraper_core7plugins4wasmNtB2_10WasmPlugin8get_info
FNDA:0,_RNCNCNCNvMNtNtCsbhzFdUIifu6_12scraper_core7plugins4wasmNtB8_10WasmPlugin12scrape_manga0s_00Bc_
FNDA:0,_RNCNCNCNvMNtNtCsbhzFdUIifu6_12scraper_core7plugins4wasmNtB8_10WasmPlugin12scrape_manga0s_0s_0Bc_
FNDA:0,_RNCNCNCNvMNtNtCsbhzFdUIifu6_12scraper_core7plugins4wasmNtB8_10WasmPlugin13scrape_latest0s_00Bc_
FNDA:0,_RNCNCNCNvMNtNtCsbhzFdUIifu6_12scraper_core7plugins4wasmNtB8_10WasmPlugin13scrape_latest0s_0s_0Bc_
FNDA:0,_RNCNCNCNvMNtNtCsbhzFdUIifu6_12scraper_core7plugins4wasmNtB8_10WasmPlugin13scrape_search0s_00Bc_
FNDA:0,_RNCNCNCNvMNtNtCsbhzFdUIifu6_12scraper_core7plugins4wasmNtB8_10WasmPlugin13scrape_search0s_0s_0Bc_
FNDA:0,_RNCNCNCNvMNtNtCsbhzFdUIifu6_12scraper_core7plugins4wasmNtB8_10WasmPlugin14scrape_chapter0s_00Bc_
FNDA:0,_RNCNCNCNvMNtNtCsbhzFdUIifu6_12scraper_core7plugins4wasmNtB8_10WasmPlugin14scrape_chapter0s_0s_0Bc_
FNDA:0,_RNCNCNCNvMNtNtCsbhzFdUIifu6_12scraper_core7plugins4wasmNtB8_10WasmPlugin15scrape_trending0s_00Bc_
FNDA:0,_RNCNCNCNvMNtNtCsbhzFdUIifu6_12scraper_core7plugins4wasmNtB8_10WasmPlugin15scrape_trending0s_0s_0Bc_
FNDA:0,_RNCNCNCNvMNtNtCsbhzFdUIifu6_12scraper_core7plugins4wasmNtB8_10WasmPlugin18scrape_genres_list0s_00Bc_
FNDA:0,_RNCNCNCNvMNtNtCsbhzFdUIifu6_12scraper_core7plugins4wasmNtB8_10WasmPlugin18scrape_genres_list0s_0s_0Bc_
FNDA:0,_RNCNCNCNvMNtNtCsbhzFdUIifu6_12scraper_core7plugins4wasmNtB8_10WasmPlugin8get_info0s_00Bc_
FNDA:0,_RNCNCNvMNtNtCsbhzFdUIifu6_12scraper_core7plugins4wasmNtB6_10WasmPlugin12scrape_manga00Ba_
FNDA:0,_RNCNCNvMNtNtCsbhzFdUIifu6_12scraper_core7plugins4wasmNtB6_10WasmPlugin12scrape_manga0s_0Ba_
FNDA:0,_RNCNCNvMNtNtCsbhzFdUIifu6_12scraper_core7plugins4wasmNtB6_10WasmPlugin13scrape_latest00Ba_
FNDA:0,_RNCNCNvMNtNtCsbhzFdUIifu6_12scraper_core7plugins4wasmNtB6_10WasmPlugin13scrape_latest0s_0Ba_
FNDA:0,_RNCNCNvMNtNtCsbhzFdUIifu6_12scraper_core7plugins4wasmNtB6_10WasmPlugin13scrape_search00Ba_
FNDA:0,_RNCNCNvMNtNtCsbhzFdUIifu6_12scraper_core7plugins4wasmNtB6_10WasmPlugin13scrape_search0s_0Ba_
FNDA:0,_RNCNCNvMNtNtCsbhzFdUIifu6_12scraper_core7plugins4wasmNtB6_10WasmPlugin14scrape_chapter00Ba_
FNDA:0,_RNCNCNvMNtNtCsbhzFdUIifu6_12scraper_core7plugins4wasmNtB6_10WasmPlugin14scrape_chapter0s_0Ba_
FNDA:0,_RNCNCNvMNtNtCsbhzFdUIifu6_12scraper_core7plugins4wasmNtB6_10WasmPlugin15scrape_trending00Ba_
FNDA:0,_RNCNCNvMNtNtCsbhzFdUIifu6_12scraper_core7plugins4wasmNtB6_10WasmPlugin15scrape_trending0s_0Ba_
FNDA:0,_RNCNCNvMNtNtCsbhzFdUIifu6_12scraper_core7plugins4wasmNtB6_10WasmPlugin18scrape_genres_list00Ba_
FNDA:0,_RNCNCNvMNtNtCsbhzFdUIifu6_12scraper_core7plugins4wasmNtB6_10WasmPlugin18scrape_genres_list0s_0Ba_
FNDA:0,_RNCNCNvMNtNtCsbhzFdUIifu6_12scraper_core7plugins4wasmNtB6_10WasmPlugin8get_info00Ba_
FNDA:0,_RNCNCNvMNtNtCsbhzFdUIifu6_12scraper_core7plugins4wasmNtB6_10WasmPlugin8get_info0s_0Ba_
FNDA:0,_RNCNvMNtNtCsbhzFdUIifu6_12scraper_core7plugins4wasmNtB4_10WasmPlugin12scrape_manga0B8_
FNDA:0,_RNCNvMNtNtCsbhzFdUIifu6_12scraper_core7plugins4wasmNtB4_10WasmPlugin13scrape_latest0B8_
FNDA:0,_RNCNvMNtNtCsbhzFdUIifu6_12scraper_core7plugins4wasmNtB4_10WasmPlugin13scrape_search0B8_
FNDA:0,_RNCNvMNtNtCsbhzFdUIifu6_12scraper_core7plugins4wasmNtB4_10WasmPlugin14scrape_chapter0B8_
FNDA:0,_RNCNvMNtNtCsbhzFdUIifu6_12scraper_core7plugins4wasmNtB4_10WasmPlugin15scrape_trending0B8_
FNDA:0,_RNCNvMNtNtCsbhzFdUIifu6_12scraper_core7plugins4wasmNtB4_10WasmPlugin18scrape_genres_list0B8_
FNDA:0,_RNCNvMNtNtCsbhzFdUIifu6_12scraper_core7plugins4wasmNtB4_10WasmPlugin3new0B8_
FNDA:0,_RNCNvMNtNtCsbhzFdUIifu6_12scraper_core7plugins4wasmNtB4_10WasmPlugin8get_info0B8_
FNDA:0,_RNvMNtNtCsbhzFdUIifu6_12scraper_core7plugins4wasmNtB2_10WasmPlugin12scrape_manga
FNDA:0,_RNvMNtNtCsbhzFdUIifu6_12scraper_core7plugins4wasmNtB2_10WasmPlugin13scrape_latest
FNDA:0,_RNvMNtNtCsbhzFdUIifu6_12scraper_core7plugins4wasmNtB2_10WasmPlugin13scrape_search
FNDA:0,_RNvMNtNtCsbhzFdUIifu6_12scraper_core7plugins4wasmNtB2_10WasmPlugin14scrape_chapter
FNDA:0,_RNvMNtNtCsbhzFdUIifu6_12scraper_core7plugins4wasmNtB2_10WasmPlugin15scrape_trending
FNDA:0,_RNvMNtNtCsbhzFdUIifu6_12scraper_core7plugins4wasmNtB2_10WasmPlugin18scrape_genres_list
FNDA:0,_RNvMNtNtCsbhzFdUIifu6_12scraper_core7plugins4wasmNtB2_10WasmPlugin3new
FNDA:0,_RNvMNtNtCsbhzFdUIifu6_12scraper_core7plugins4wasmNtB2_10WasmPlugin8get_info
FNF:43
FNH:0
DA:22,0
DA:23,0
DA:25,0
DA:26,0
DA:28,0
DA:30,0
DA:31,0
DA:32,0
DA:34,0
DA:35,0
DA:36,0
DA:38,0
DA:39,0
DA:40,0
DA:41,0
DA:42,0
DA:43,0
DA:44,0
DA:45,0
DA:46,0
DA:48,0
DA:49,0
DA:50,0
DA:51,0
DA:52,0
DA:54,0
DA:55,0
DA:56,0
DA:57,0
DA:58,0
DA:59,0
DA:60,0
DA:61,0
DA:62,0
DA:64,0
DA:65,0
DA:66,0
DA:67,0
DA:68,0
DA:70,0
DA:71,0
DA:72,0
DA:73,0
DA:74,0
DA:75,0
DA:76,0
DA:77,0
DA:78,0
DA:80,0
DA:81,0
DA:82,0
DA:83,0
DA:84,0
DA:86,0
DA:87,0
DA:88,0
DA:89,0
DA:90,0
DA:91,0
DA:92,0
DA:93,0
DA:94,0
DA:96,0
DA:97,0
DA:98,0
DA:99,0
DA:100,0
DA:102,0
DA:103,0
DA:104,0
DA:105,0
DA:106,0
DA:107,0
DA:108,0
DA:109,0
DA:110,0
DA:112,0
DA:113,0
DA:114,0
DA:115,0
DA:116,0
DA:118,0
DA:119,0
DA:120,0
DA:121,0
DA:122,0
DA:123,0
DA:124,0
DA:125,0
DA:126,0
DA:128,0
DA:129,0
DA:130,0
DA:131,0
DA:132,0
DA:134,0
DA:135,0
DA:136,0
DA:137,0
DA:138,0
DA:139,0
DA:140,0
DA:141,0
DA:142,0
DA:144,0
DA:145,0
DA:146,0
DA:147,0
DA:148,0
DA:150,0
DA:151,0
DA:152,0
DA:153,0
DA:154,0
DA:155,0
DA:156,0
DA:157,0
DA:158,0
BRF:0
BRH:0
LF:153
LH:0
end_of_record
SF:/mnt/040b9fb6-50c4-4490-87c6-b7dd911435c9/Projects/rust/manga-vault/scrapers/scraper_core/src/plugins/wasm/state.rs
FN:48,_RNCNvXs0_NtNtNtCsbhzFdUIifu6_12scraper_core7plugins4wasm5stateNtB7_6StatesNtNtNtNtNtB9_8bindings7scraper5types4http4Host3get0Bd_
FN:82,_RNCNvXs0_NtNtNtCsbhzFdUIifu6_12scraper_core7plugins4wasm5stateNtB7_6StatesNtNtNtNtNtB9_8bindings7scraper5types4http4Host4post0Bd_
FN:12,_RNvMNtNtNtCsbhzFdUIifu6_12scraper_core7plugins4wasm5stateNtB2_6States3new
FN:29,_RNvXs0_NtNtNtCsbhzFdUIifu6_12scraper_core7plugins4wasm5stateNtB5_6StatesNtNtNtNtNtB7_8bindings7scraper5types4http4Host3get
FN:62,_RNvXs0_NtNtNtCsbhzFdUIifu6_12scraper_core7plugins4wasm5stateNtB5_6StatesNtNtNtNtNtB7_8bindings7scraper5types4http4Host4post
FN:20,_RNvXs_NtNtNtCsbhzFdUIifu6_12scraper_core7plugins4wasm5stateNtB4_6StatesNtNtCs5K4hkPimECb_13wasmtime_wasi4view8WasiView3ctx
FNDA:0,_RNCNvXs0_NtNtNtCsbhzFdUIifu6_12scraper_core7plugins4wasm5stateNtB7_6StatesNtNtNtNtNtB9_8bindings7scraper5types4http4Host3get0Bd_
FNDA:0,_RNCNvXs0_NtNtNtCsbhzFdUIifu6_12scraper_core7plugins4wasm5stateNtB7_6StatesNtNtNtNtNtB9_8bindings7scraper5types4http4Host4post0Bd_
FNDA:0,_RNvMNtNtNtCsbhzFdUIifu6_12scraper_core7plugins4wasm5stateNtB2_6States3new
FNDA:0,_RNvXs0_NtNtNtCsbhzFdUIifu6_12scraper_core7plugins4wasm5stateNtB5_6StatesNtNtNtNtNtB7_8bindings7scraper5types4http4Host3get
FNDA:0,_RNvXs0_NtNtNtCsbhzFdUIifu6_12scraper_core7plugins4wasm5stateNtB5_6StatesNtNtNtNtNtB7_8bindings7scraper5types4http4Host4post
FNDA:0,_RNvXs_NtNtNtCsbhzFdUIifu6_12scraper_core7plugins4wasm5stateNtB4_6StatesNtNtCs5K4hkPimECb_13wasmtime_wasi4view8WasiView3ctx
FNF:6
FNH:0
DA:12,0
DA:13,0
DA:14,0
DA:15,0
DA:16,0
DA:20,0
DA:21,0
DA:22,0
DA:23,0
DA:24,0
DA:25,0
DA:29,0
DA:30,0
DA:31,0
DA:32,0
DA:33,0
DA:34,0
DA:35,0
DA:36,0
DA:37,0
DA:38,0
DA:39,0
DA:41,0
DA:42,0
DA:43,0
DA:44,0
DA:45,0
DA:46,0
DA:47,0
DA:48,0
DA:49,0
DA:50,0
DA:51,0
DA:52,0
DA:53,0
DA:55,0
DA:56,0
DA:57,0
DA:60,0
DA:62,0
DA:63,0
DA:64,0
DA:65,0
DA:66,0
DA:67,0
DA:68,0
DA:69,0
DA:70,0
DA:71,0
DA:72,0
DA:73,0
DA:75,0
DA:76,0
DA:77,0
DA:78,0
DA:79,0
DA:80,0
DA:81,0
DA:82,0
DA:83,0
DA:84,0
DA:85,0
DA:86,0
DA:87,0
DA:89,0
DA:90,0
DA:91,0
DA:94,0
BRF:0
BRH:0
LF:68
LH:0
end_of_record
SF:/mnt/040b9fb6-50c4-4490-87c6-b7dd911435c9/Projects/rust/manga-vault/scrapers/scraper_core/src/repository.rs
FN:82,_RNCNCNvNtCsbhzFdUIifu6_12scraper_core10repository14filter_plugins00B7_
FN:84,_RNCNCNvNtCsbhzFdUIifu6_12scraper_core10repository14filter_plugins0s_0B7_
FN:122,_RNCNCNvNtCsbhzFdUIifu6_12scraper_core10repository19cleanup_old_plugins00B7_
FN:129,_RNCNCNvNtCsbhzFdUIifu6_12scraper_core10repository19cleanup_old_plugins0s_0B7_
FN:152,_RNCNCNvNtCsbhzFdUIifu6_12scraper_core10repository20download_new_plugins00B7_
FN:189,_RNCNCNvNtCsbhzFdUIifu6_12scraper_core10repository20download_new_plugins0s0_0B7_
FN:178,_RNCNCNvNtCsbhzFdUIifu6_12scraper_core10repository20download_new_plugins0s_0B7_
FN:109,_RNCNCNvNtCsbhzFdUIifu6_12scraper_core10repository21load_internal_plugins00B7_
FN:110,_RNCNCNvNtCsbhzFdUIifu6_12scraper_core10repository21load_internal_plugins0s_0B7_
FN:51,_RNCNvNtCsbhzFdUIifu6_12scraper_core10repository10load_repos0B5_
FN:81,_RNCNvNtCsbhzFdUIifu6_12scraper_core10repository14filter_plugins0B5_
FN:69,_RNCNvNtCsbhzFdUIifu6_12scraper_core10repository16fetch_repository0B5_
FN:120,_RNCNvNtCsbhzFdUIifu6_12scraper_core10repository19cleanup_old_plugins0B5_
FN:142,_RNCNvNtCsbhzFdUIifu6_12scraper_core10repository20download_new_plugins0B5_
FN:104,_RNCNvNtCsbhzFdUIifu6_12scraper_core10repository21load_internal_plugins0B5_
FN:99,_RNCNvNtCsbhzFdUIifu6_12scraper_core10repository23ensure_directory_exists0B5_
FN:51,_RNvNtCsbhzFdUIifu6_12scraper_core10repository10load_repos
FN:78,_RNvNtCsbhzFdUIifu6_12scraper_core10repository14filter_plugins
FN:69,_RNvNtCsbhzFdUIifu6_12scraper_core10repository16fetch_repository
FN:194,_RNvNtCsbhzFdUIifu6_12scraper_core10repository17get_download_info
FN:116,_RNvNtCsbhzFdUIifu6_12scraper_core10repository19cleanup_old_plugins
FN:137,_RNvNtCsbhzFdUIifu6_12scraper_core10repository20download_new_plugins
FN:104,_RNvNtCsbhzFdUIifu6_12scraper_core10repository21load_internal_plugins
FN:96,_RNvNtCsbhzFdUIifu6_12scraper_core10repository23ensure_directory_exists
FNDA:0,_RNCNCNvNtCsbhzFdUIifu6_12scraper_core10repository14filter_plugins00B7_
FNDA:0,_RNCNCNvNtCsbhzFdUIifu6_12scraper_core10repository14filter_plugins0s_0B7_
FNDA:0,_RNCNCNvNtCsbhzFdUIifu6_12scraper_core10repository19cleanup_old_plugins00B7_
FNDA:0,_RNCNCNvNtCsbhzFdUIifu6_12scraper_core10repository19cleanup_old_plugins0s_0B7_
FNDA:0,_RNCNCNvNtCsbhzFdUIifu6_12scraper_core10repository20download_new_plugins00B7_
FNDA:0,_RNCNCNvNtCsbhzFdUIifu6_12scraper_core10repository20download_new_plugins0s0_0B7_
FNDA:0,_RNCNCNvNtCsbhzFdUIifu6_12scraper_core10repository20download_new_plugins0s_0B7_
FNDA:0,_RNCNCNvNtCsbhzFdUIifu6_12scraper_core10repository21load_internal_plugins00B7_
FNDA:0,_RNCNCNvNtCsbhzFdUIifu6_12scraper_core10repository21load_internal_plugins0s_0B7_
FNDA:0,_RNCNvNtCsbhzFdUIifu6_12scraper_core10repository10load_repos0B5_
FNDA:0,_RNCNvNtCsbhzFdUIifu6_12scraper_core10repository14filter_plugins0B5_
FNDA:0,_RNCNvNtCsbhzFdUIifu6_12scraper_core10repository16fetch_repository0B5_
FNDA:0,_RNCNvNtCsbhzFdUIifu6_12scraper_core10repository19cleanup_old_plugins0B5_
FNDA:0,_RNCNvNtCsbhzFdUIifu6_12scraper_core10repository20download_new_plugins0B5_
FNDA:0,_RNCNvNtCsbhzFdUIifu6_12scraper_core10repository21load_internal_plugins0B5_
FNDA:0,_RNCNvNtCsbhzFdUIifu6_12scraper_core10repository23ensure_directory_exists0B5_
FNDA:0,_RNvNtCsbhzFdUIifu6_12scraper_core10repository10load_repos
FNDA:0,_RNvNtCsbhzFdUIifu6_12scraper_core10repository14filter_plugins
FNDA:0,_RNvNtCsbhzFdUIifu6_12scraper_core10repository16fetch_repository
FNDA:0,_RNvNtCsbhzFdUIifu6_12scraper_core10repository17get_download_info
FNDA:0,_RNvNtCsbhzFdUIifu6_12scraper_core10repository19cleanup_old_plugins
FNDA:0,_RNvNtCsbhzFdUIifu6_12scraper_core10repository20download_new_plugins
FNDA:0,_RNvNtCsbhzFdUIifu6_12scraper_core10repository21load_internal_plugins
FNDA:0,_RNvNtCsbhzFdUIifu6_12scraper_core10repository23ensure_directory_exists
FNF:24
FNH:0
DA:51,0
DA:52,0
DA:53,0
DA:55,0
DA:56,0
DA:58,0
DA:59,0
DA:61,0
DA:62,0
DA:64,0
DA:66,0
DA:67,0
DA:69,0
DA:70,0
DA:71,0
DA:72,0
DA:73,0
DA:74,0
DA:75,0
DA:76,0
DA:78,0
DA:79,0
DA:80,0
DA:81,0
DA:82,0
DA:84,0
DA:86,0
DA:87,0
DA:88,0
DA:90,0
DA:91,0
DA:92,0
DA:93,0
DA:94,0
DA:96,0
DA:97,0
DA:98,0
DA:99,0
DA:100,0
DA:101,0
DA:102,0
DA:104,0
DA:105,0
DA:106,0
DA:107,0
DA:108,0
DA:109,0
DA:110,0
DA:112,0
DA:114,0
DA:116,0
DA:117,0
DA:118,0
DA:119,0
DA:120,0
DA:121,0
DA:122,0
DA:123,0
DA:124,0
DA:125,0
DA:126,0
DA:127,0
DA:128,0
DA:129,0
DA:130,0
DA:132,0
DA:134,0
DA:135,0
DA:137,0
DA:138,0
DA:139,0
DA:140,0
DA:141,0
DA:142,0
DA:143,0
DA:144,0
DA:146,0
DA:147,0
DA:148,0
DA:149,0
DA:151,0
DA:152,0
DA:153,0
DA:154,0
DA:155,0
DA:156,0
DA:157,0
DA:158,0
DA:159,0
DA:160,0
DA:162,0
DA:163,0
DA:165,0
DA:167,0
DA:168,0
DA:169,0
DA:170,0
DA:171,0
DA:172,0
DA:173,0
DA:174,0
DA:176,0
DA:177,0
DA:178,0
DA:180,0
DA:181,0
DA:182,0
DA:183,0
DA:186,0
DA:187,0
DA:188,0
DA:189,0
DA:191,0
DA:192,0
DA:194,0
DA:195,0
DA:196,0
DA:197,0
DA:198,0
DA:200,0
DA:202,0
BRF:0
BRH:0
LF:137
LH:0
end_of_record
SF:/mnt/040b9fb6-50c4-4490-87c6-b7dd911435c9/Projects/rust/manga-vault/scrapers/scraper_types/src/lib.rs
FN:8,_RNCNvCs8OLOgmeY8J7_13scraper_types17CHAP_NUMBER_REGEX0B3_
FN:153,_RNCNvMs3_Cs8OLOgmeY8J7_13scraper_typesNtB7_7Chapter16all_same_chapter0B7_
FN:140,_RNCNvMs3_Cs8OLOgmeY8J7_13scraper_typesNtB7_7Chapter22extract_chapter_number0B7_
FN:141,_RNCNvMs3_Cs8OLOgmeY8J7_13scraper_typesNtB7_7Chapter22extract_chapter_numbers_0B7_
FN:55,_RNvMs0_Cs8OLOgmeY8J7_13scraper_typesNtB5_9MangaPage18parse_release_date
FN:144,_RNvMs3_Cs8OLOgmeY8J7_13scraper_typesNtB5_7Chapter12same_chapter
FN:148,_RNvMs3_Cs8OLOgmeY8J7_13scraper_typesNtB5_7Chapter16all_same_chapter
FN:137,_RNvMs3_Cs8OLOgmeY8J7_13scraper_typesNtB5_7Chapter22extract_chapter_number
FN:18,_RNvXCs8OLOgmeY8J7_13scraper_typesNtB2_9MangaItemNtNtCs5IYWBWA2NF0_4mlua6traits7IntoLua8into_lua
FN:90,_RNvXs1_Cs8OLOgmeY8J7_13scraper_typesNtB5_9MangaPageNtNtCs5IYWBWA2NF0_4mlua6traits7IntoLua8into_lua
FN:109,_RNvXs2_Cs8OLOgmeY8J7_13scraper_typesNtB5_9MangaPageNtNtCs5IYWBWA2NF0_4mlua6traits7FromLua8from_lua
FN:158,_RNvXs4_Cs8OLOgmeY8J7_13scraper_typesNtB5_7ChapterNtNtCs5IYWBWA2NF0_4mlua6traits7IntoLua8into_lua
FN:168,_RNvXs5_Cs8OLOgmeY8J7_13scraper_typesNtB5_7ChapterNtNtCs5IYWBWA2NF0_4mlua6traits7FromLua8from_lua
FN:186,_RNvXs6_Cs8OLOgmeY8J7_13scraper_typesNtB5_5GenreNtNtCs5IYWBWA2NF0_4mlua6traits7IntoLua8into_lua
FN:195,_RNvXs7_Cs8OLOgmeY8J7_13scraper_typesNtB5_5GenreNtNtCs5IYWBWA2NF0_4mlua6traits7FromLua8from_lua
FN:215,_RNvXs8_Cs8OLOgmeY8J7_13scraper_typesNtB5_11ScraperInfoNtNtCs5IYWBWA2NF0_4mlua6traits7IntoLua8into_lua
FN:228,_RNvXs9_Cs8OLOgmeY8J7_13scraper_typesNtB5_11ScraperInfoNtNtCs5IYWBWA2NF0_4mlua6traits7FromLua8from_lua
FN:28,_RNvXs_Cs8OLOgmeY8J7_13scraper_typesNtB4_9MangaItemNtNtCs5IYWBWA2NF0_4mlua6traits7FromLua8from_lua
FN:144,_RNvMs3_CslHdHAl8hCXl_13scraper_typesNtB5_7Chapter12same_chapter
FN:148,_RNvMs3_CslHdHAl8hCXl_13scraper_typesNtB5_7Chapter16all_same_chapter
FN:137,_RNvMs3_CslHdHAl8hCXl_13scraper_typesNtB5_7Chapter22extract_chapter_number
FN:55,_RNvMs0_CslHdHAl8hCXl_13scraper_typesNtB5_9MangaPage18parse_release_date
FN:18,_RNvXCslHdHAl8hCXl_13scraper_typesNtB2_9MangaItemNtNtCs5IYWBWA2NF0_4mlua6traits7IntoLua8into_lua
FN:90,_RNvXs1_CslHdHAl8hCXl_13scraper_typesNtB5_9MangaPageNtNtCs5IYWBWA2NF0_4mlua6traits7IntoLua8into_lua
FN:109,_RNvXs2_CslHdHAl8hCXl_13scraper_typesNtB5_9MangaPageNtNtCs5IYWBWA2NF0_4mlua6traits7FromLua8from_lua
FN:158,_RNvXs4_CslHdHAl8hCXl_13scraper_typesNtB5_7ChapterNtNtCs5IYWBWA2NF0_4mlua6traits7IntoLua8into_lua
FN:168,_RNvXs5_CslHdHAl8hCXl_13scraper_typesNtB5_7ChapterNtNtCs5IYWBWA2NF0_4mlua6traits7FromLua8from_lua
FN:186,_RNvXs6_CslHdHAl8hCXl_13scraper_typesNtB5_5GenreNtNtCs5IYWBWA2NF0_4mlua6traits7IntoLua8into_lua
FN:195,_RNvXs7_CslHdHAl8hCXl_13scraper_typesNtB5_5GenreNtNtCs5IYWBWA2NF0_4mlua6traits7FromLua8from_lua
FN:215,_RNvXs8_CslHdHAl8hCXl_13scraper_typesNtB5_11ScraperInfoNtNtCs5IYWBWA2NF0_4mlua6traits7IntoLua8into_lua
FN:228,_RNvXs9_CslHdHAl8hCXl_13scraper_typesNtB5_11ScraperInfoNtNtCs5IYWBWA2NF0_4mlua6traits7FromLua8from_lua
FN:28,_RNvXs_CslHdHAl8hCXl_13scraper_typesNtB4_9MangaItemNtNtCs5IYWBWA2NF0_4mlua6traits7FromLua8from_lua
FN:246,_RNvNtCslHdHAl8hCXl_13scraper_types5testss_12test_extract
FN:273,_RNvNtCslHdHAl8hCXl_13scraper_types5testss_17test_same_chapter
FN:292,_RNvNtCslHdHAl8hCXl_13scraper_types5testss_21test_all_same_chapter
FN:8,_RNCNvCslHdHAl8hCXl_13scraper_types17CHAP_NUMBER_REGEX0B3_
FN:153,_RNCNvMs3_CslHdHAl8hCXl_13scraper_typesNtB7_7Chapter16all_same_chapter0B7_
FN:140,_RNCNvMs3_CslHdHAl8hCXl_13scraper_typesNtB7_7Chapter22extract_chapter_number0B7_
FN:141,_RNCNvMs3_CslHdHAl8hCXl_13scraper_typesNtB7_7Chapter22extract_chapter_numbers_0B7_
FNDA:0,_RNCNvCs8OLOgmeY8J7_13scraper_types17CHAP_NUMBER_REGEX0B3_
FNDA:0,_RNCNvMs3_Cs8OLOgmeY8J7_13scraper_typesNtB7_7Chapter16all_same_chapter0B7_
FNDA:0,_RNCNvMs3_Cs8OLOgmeY8J7_13scraper_typesNtB7_7Chapter22extract_chapter_number0B7_
FNDA:0,_RNCNvMs3_Cs8OLOgmeY8J7_13scraper_typesNtB7_7Chapter22extract_chapter_numbers_0B7_
FNDA:0,_RNvMs0_Cs8OLOgmeY8J7_13scraper_typesNtB5_9MangaPage18parse_release_date
FNDA:0,_RNvMs3_Cs8OLOgmeY8J7_13scraper_typesNtB5_7Chapter12same_chapter
FNDA:0,_RNvMs3_Cs8OLOgmeY8J7_13scraper_typesNtB5_7Chapter16all_same_chapter
FNDA:0,_RNvMs3_Cs8OLOgmeY8J7_13scraper_typesNtB5_7Chapter22extract_chapter_number
FNDA:0,_RNvXCs8OLOgmeY8J7_13scraper_typesNtB2_9MangaItemNtNtCs5IYWBWA2NF0_4mlua6traits7IntoLua8into_lua
FNDA:0,_RNvXs1_Cs8OLOgmeY8J7_13scraper_typesNtB5_9MangaPageNtNtCs5IYWBWA2NF0_4mlua6traits7IntoLua8into_lua
FNDA:0,_RNvXs2_Cs8OLOgmeY8J7_13scraper_typesNtB5_9MangaPageNtNtCs5IYWBWA2NF0_4mlua6traits7FromLua8from_lua
FNDA:0,_RNvXs4_Cs8OLOgmeY8J7_13scraper_typesNtB5_7ChapterNtNtCs5IYWBWA2NF0_4mlua6traits7IntoLua8into_lua
FNDA:0,_RNvXs5_Cs8OLOgmeY8J7_13scraper_typesNtB5_7ChapterNtNtCs5IYWBWA2NF0_4mlua6traits7FromLua8from_lua
FNDA:0,_RNvXs6_Cs8OLOgmeY8J7_13scraper_typesNtB5_5GenreNtNtCs5IYWBWA2NF0_4mlua6traits7IntoLua8into_lua
FNDA:0,_RNvXs7_Cs8OLOgmeY8J7_13scraper_typesNtB5_5GenreNtNtCs5IYWBWA2NF0_4mlua6traits7FromLua8from_lua
FNDA:0,_RNvXs8_Cs8OLOgmeY8J7_13scraper_typesNtB5_11ScraperInfoNtNtCs5IYWBWA2NF0_4mlua6traits7IntoLua8into_lua
FNDA:0,_RNvXs9_Cs8OLOgmeY8J7_13scraper_typesNtB5_11ScraperInfoNtNtCs5IYWBWA2NF0_4mlua6traits7FromLua8from_lua
FNDA:0,_RNvXs_Cs8OLOgmeY8J7_13scraper_typesNtB4_9MangaItemNtNtCs5IYWBWA2NF0_4mlua6traits7FromLua8from_lua
FNDA:3,_RNvMs3_CslHdHAl8hCXl_13scraper_typesNtB5_7Chapter12same_chapter
FNDA:2,_RNvMs3_CslHdHAl8hCXl_13scraper_typesNtB5_7Chapter16all_same_chapter
FNDA:17,_RNvMs3_CslHdHAl8hCXl_13scraper_typesNtB5_7Chapter22extract_chapter_number
FNDA:0,_RNvMs0_CslHdHAl8hCXl_13scraper_typesNtB5_9MangaPage18parse_release_date
FNDA:0,_RNvXCslHdHAl8hCXl_13scraper_typesNtB2_9MangaItemNtNtCs5IYWBWA2NF0_4mlua6traits7IntoLua8into_lua
FNDA:0,_RNvXs1_CslHdHAl8hCXl_13scraper_typesNtB5_9MangaPageNtNtCs5IYWBWA2NF0_4mlua6traits7IntoLua8into_lua
FNDA:0,_RNvXs2_CslHdHAl8hCXl_13scraper_typesNtB5_9MangaPageNtNtCs5IYWBWA2NF0_4mlua6traits7FromLua8from_lua
FNDA:0,_RNvXs4_CslHdHAl8hCXl_13scraper_typesNtB5_7ChapterNtNtCs5IYWBWA2NF0_4mlua6traits7IntoLua8into_lua
FNDA:0,_RNvXs5_CslHdHAl8hCXl_13scraper_typesNtB5_7ChapterNtNtCs5IYWBWA2NF0_4mlua6traits7FromLua8from_lua
FNDA:0,_RNvXs6_CslHdHAl8hCXl_13scraper_typesNtB5_5GenreNtNtCs5IYWBWA2NF0_4mlua6traits7IntoLua8into_lua
FNDA:0,_RNvXs7_CslHdHAl8hCXl_13scraper_typesNtB5_5GenreNtNtCs5IYWBWA2NF0_4mlua6traits7FromLua8from_lua
FNDA:0,_RNvXs8_CslHdHAl8hCXl_13scraper_typesNtB5_11ScraperInfoNtNtCs5IYWBWA2NF0_4mlua6traits7IntoLua8into_lua
FNDA:0,_RNvXs9_CslHdHAl8hCXl_13scraper_typesNtB5_11ScraperInfoNtNtCs5IYWBWA2NF0_4mlua6traits7FromLua8from_lua
FNDA:0,_RNvXs_CslHdHAl8hCXl_13scraper_typesNtB4_9MangaItemNtNtCs5IYWBWA2NF0_4mlua6traits7FromLua8from_lua
FNDA:1,_RNvNtCslHdHAl8hCXl_13scraper_types5testss_12test_extract
FNDA:1,_RNvNtCslHdHAl8hCXl_13scraper_types5testss_17test_same_chapter
FNDA:1,_RNvNtCslHdHAl8hCXl_13scraper_types5testss_21test_all_same_chapter
FNDA:17,_RNCNvCslHdHAl8hCXl_13scraper_types17CHAP_NUMBER_REGEX0B3_
FNDA:5,_RNCNvMs3_CslHdHAl8hCXl_13scraper_typesNtB7_7Chapter16all_same_chapter0B7_
FNDA:16,_RNCNvMs3_CslHdHAl8hCXl_13scraper_typesNtB7_7Chapter22extract_chapter_number0B7_
FNDA:16,_RNCNvMs3_CslHdHAl8hCXl_13scraper_typesNtB7_7Chapter22extract_chapter_numbers_0B7_
FNF:21
FNH:10
DA:8,17
DA:18,0
DA:19,0
DA:20,0
DA:21,0
DA:22,0
DA:23,0
DA:24,0
DA:28,0
DA:29,0
DA:31,0
DA:32,0
DA:33,0
DA:35,0
DA:55,0
DA:56,0
DA:57,0
DA:58,0
DA:59,0
DA:60,0
DA:61,0
DA:62,0
DA:63,0
DA:64,0
DA:66,0
DA:67,0
DA:68,0
DA:69,0
DA:70,0
DA:71,0
DA:72,0
DA:73,0
DA:74,0
DA:77,0
DA:78,0
DA:79,0
DA:80,0
DA:81,0
DA:82,0
DA:83,0
DA:84,0
DA:85,0
DA:86,0
DA:90,0
DA:91,0
DA:92,0
DA:93,0
DA:94,0
DA:95,0
DA:96,0
DA:97,0
DA:98,0
DA:99,0
DA:100,0
DA:101,0
DA:102,0
DA:103,0
DA:104,0
DA:105,0
DA:109,0
DA:110,0
DA:112,0
DA:113,0
DA:114,0
DA:115,0
DA:116,0
DA:117,0
DA:118,0
DA:119,0
DA:120,0
DA:121,0
DA:122,0
DA:123,0
DA:125,0
DA:137,17
DA:138,17
DA:139,17
DA:140,17
DA:141,17
DA:142,17
DA:144,3
DA:145,3
DA:146,3
DA:148,2
DA:149,2
DA:150,0
DA:151,2
DA:152,2
DA:153,5
DA:154,2
DA:158,0
DA:159,0
DA:160,0
DA:161,0
DA:162,0
DA:163,0
DA:164,0
DA:168,0
DA:169,0
DA:171,0
DA:172,0
DA:173,0
DA:174,0
DA:176,0
DA:186,0
DA:187,0
DA:188,0
DA:189,0
DA:190,0
DA:191,0
DA:195,0
DA:196,0
DA:198,0
DA:199,0
DA:201,0
DA:215,0
DA:216,0
DA:217,0
DA:218,0
DA:219,0
DA:220,0
DA:221,0
DA:222,0
DA:223,0
DA:224,0
DA:228,0
DA:229,0
DA:231,0
DA:232,0
DA:233,0
DA:234,0
DA:235,0
DA:236,0
DA:238,0
DA:246,1
DA:247,1
DA:248,1
DA:249,1
DA:250,1
DA:251,1
DA:253,1
DA:254,1
DA:255,1
DA:256,1
DA:257,1
DA:259,1
DA:260,1
DA:261,1
DA:262,1
DA:263,1
DA:265,1
DA:266,1
DA:267,1
DA:268,1
DA:269,1
DA:270,1
DA:273,1
DA:274,1
DA:275,1
DA:276,1
DA:277,1
DA:278,1
DA:279,1
DA:280,1
DA:281,1
DA:282,1
DA:283,1
DA:284,1
DA:285,1
DA:286,1
DA:287,1
DA:288,1
DA:289,1
DA:292,1
DA:293,1
DA:294,1
DA:295,1
DA:296,1
DA:297,1
DA:298,1
DA:299,1
DA:300,1
DA:301,1
DA:302,1
DA:303,1
DA:304,1
DA:305,1
DA:306,1
DA:307,1
DA:308,1
DA:309,1
DA:311,1
DA:312,1
DA:313,1
DA:314,1
DA:315,1
DA:316,1
BRF:0
BRH:0
LF:200
LH:82
end_of_record
SF:/mnt/040b9fb6-50c4-4490-87c6-b7dd911435c9/Projects/rust/manga-vault/src/main.rs
FN:56,_RNCNCNvCsgIlnQsnnehB_11manga_vault4main00B5_
FN:68,_RNCNCNvCsgIlnQsnnehB_11manga_vault4main0s_0B5_
FN:13,_RNCNvCsgIlnQsnnehB_11manga_vault4main0B3_
FN:13,_RNvCsgIlnQsnnehB_11manga_vault4main
FNDA:0,_RNCNCNvCsgIlnQsnnehB_11manga_vault4main00B5_
FNDA:0,_RNCNCNvCsgIlnQsnnehB_11manga_vault4main0s_0B5_
FNDA:0,_RNCNvCsgIlnQsnnehB_11manga_vault4main0B3_
FNDA:0,_RNvCsgIlnQsnnehB_11manga_vault4main
FNF:4
FNH:0
DA:13,0
DA:14,0
DA:15,0
DA:17,0
DA:19,0
DA:20,0
DA:21,0
DA:22,0
DA:23,0
DA:24,0
DA:29,0
DA:30,0
DA:33,0
DA:35,0
DA:36,0
DA:39,0
DA:40,0
DA:41,0
DA:45,0
DA:46,0
DA:50,0
DA:51,0
DA:53,0
DA:54,0
DA:56,0
DA:57,0
DA:58,0
DA:59,0
DA:60,0
DA:61,0
DA:62,0
DA:63,0
DA:64,0
DA:65,0
DA:66,0
DA:68,0
DA:69,0
DA:70,0
DA:71,0
DA:73,0
DA:74,0
DA:75,0
BRF:0
BRH:0
LF:46
LH:0
end_of_record